
bomb:     file format elf32-i386


Disassembly of section .init:

0804867c <_init>:
 804867c:	53                   	push   %ebx
 804867d:	83 ec 08             	sub    $0x8,%esp
 8048680:	e8 0b 02 00 00       	call   8048890 <__x86.get_pc_thunk.bx>
 8048685:	81 c3 73 2a 00 00    	add    $0x2a73,%ebx
 804868b:	8b 83 fc ff ff ff    	mov    -0x4(%ebx),%eax
 8048691:	85 c0                	test   %eax,%eax
 8048693:	74 05                	je     804869a <_init+0x1e>
 8048695:	e8 d6 00 00 00       	call   8048770 <__gmon_start__@plt>
 804869a:	83 c4 08             	add    $0x8,%esp
 804869d:	5b                   	pop    %ebx
 804869e:	c3                   	ret    

Disassembly of section .plt:

080486a0 <read@plt-0x10>:
 80486a0:	ff 35 fc b0 04 08    	pushl  0x804b0fc
 80486a6:	ff 25 00 b1 04 08    	jmp    *0x804b100
 80486ac:	00 00                	add    %al,(%eax)
	...

080486b0 <read@plt>:
 80486b0:	ff 25 04 b1 04 08    	jmp    *0x804b104
 80486b6:	68 00 00 00 00       	push   $0x0
 80486bb:	e9 e0 ff ff ff       	jmp    80486a0 <_init+0x24>

080486c0 <printf@plt>:
 80486c0:	ff 25 08 b1 04 08    	jmp    *0x804b108
 80486c6:	68 08 00 00 00       	push   $0x8
 80486cb:	e9 d0 ff ff ff       	jmp    80486a0 <_init+0x24>

080486d0 <fflush@plt>:
 80486d0:	ff 25 0c b1 04 08    	jmp    *0x804b10c
 80486d6:	68 10 00 00 00       	push   $0x10
 80486db:	e9 c0 ff ff ff       	jmp    80486a0 <_init+0x24>

080486e0 <memcpy@plt>:
 80486e0:	ff 25 10 b1 04 08    	jmp    *0x804b110
 80486e6:	68 18 00 00 00       	push   $0x18
 80486eb:	e9 b0 ff ff ff       	jmp    80486a0 <_init+0x24>

080486f0 <fgets@plt>:
 80486f0:	ff 25 14 b1 04 08    	jmp    *0x804b114
 80486f6:	68 20 00 00 00       	push   $0x20
 80486fb:	e9 a0 ff ff ff       	jmp    80486a0 <_init+0x24>

08048700 <signal@plt>:
 8048700:	ff 25 18 b1 04 08    	jmp    *0x804b118
 8048706:	68 28 00 00 00       	push   $0x28
 804870b:	e9 90 ff ff ff       	jmp    80486a0 <_init+0x24>

08048710 <sleep@plt>:
 8048710:	ff 25 1c b1 04 08    	jmp    *0x804b11c
 8048716:	68 30 00 00 00       	push   $0x30
 804871b:	e9 80 ff ff ff       	jmp    80486a0 <_init+0x24>

08048720 <alarm@plt>:
 8048720:	ff 25 20 b1 04 08    	jmp    *0x804b120
 8048726:	68 38 00 00 00       	push   $0x38
 804872b:	e9 70 ff ff ff       	jmp    80486a0 <_init+0x24>

08048730 <bcopy@plt>:
 8048730:	ff 25 24 b1 04 08    	jmp    *0x804b124
 8048736:	68 40 00 00 00       	push   $0x40
 804873b:	e9 60 ff ff ff       	jmp    80486a0 <_init+0x24>

08048740 <strcpy@plt>:
 8048740:	ff 25 28 b1 04 08    	jmp    *0x804b128
 8048746:	68 48 00 00 00       	push   $0x48
 804874b:	e9 50 ff ff ff       	jmp    80486a0 <_init+0x24>

08048750 <getenv@plt>:
 8048750:	ff 25 2c b1 04 08    	jmp    *0x804b12c
 8048756:	68 50 00 00 00       	push   $0x50
 804875b:	e9 40 ff ff ff       	jmp    80486a0 <_init+0x24>

08048760 <puts@plt>:
 8048760:	ff 25 30 b1 04 08    	jmp    *0x804b130
 8048766:	68 58 00 00 00       	push   $0x58
 804876b:	e9 30 ff ff ff       	jmp    80486a0 <_init+0x24>

08048770 <__gmon_start__@plt>:
 8048770:	ff 25 34 b1 04 08    	jmp    *0x804b134
 8048776:	68 60 00 00 00       	push   $0x60
 804877b:	e9 20 ff ff ff       	jmp    80486a0 <_init+0x24>

08048780 <exit@plt>:
 8048780:	ff 25 38 b1 04 08    	jmp    *0x804b138
 8048786:	68 68 00 00 00       	push   $0x68
 804878b:	e9 10 ff ff ff       	jmp    80486a0 <_init+0x24>

08048790 <__libc_start_main@plt>:
 8048790:	ff 25 3c b1 04 08    	jmp    *0x804b13c
 8048796:	68 70 00 00 00       	push   $0x70
 804879b:	e9 00 ff ff ff       	jmp    80486a0 <_init+0x24>

080487a0 <fprintf@plt>:
 80487a0:	ff 25 40 b1 04 08    	jmp    *0x804b140
 80487a6:	68 78 00 00 00       	push   $0x78
 80487ab:	e9 f0 fe ff ff       	jmp    80486a0 <_init+0x24>

080487b0 <write@plt>:
 80487b0:	ff 25 44 b1 04 08    	jmp    *0x804b144
 80487b6:	68 80 00 00 00       	push   $0x80
 80487bb:	e9 e0 fe ff ff       	jmp    80486a0 <_init+0x24>

080487c0 <__isoc99_sscanf@plt>:
 80487c0:	ff 25 48 b1 04 08    	jmp    *0x804b148
 80487c6:	68 88 00 00 00       	push   $0x88
 80487cb:	e9 d0 fe ff ff       	jmp    80486a0 <_init+0x24>

080487d0 <fopen@plt>:
 80487d0:	ff 25 4c b1 04 08    	jmp    *0x804b14c
 80487d6:	68 90 00 00 00       	push   $0x90
 80487db:	e9 c0 fe ff ff       	jmp    80486a0 <_init+0x24>

080487e0 <__errno_location@plt>:
 80487e0:	ff 25 50 b1 04 08    	jmp    *0x804b150
 80487e6:	68 98 00 00 00       	push   $0x98
 80487eb:	e9 b0 fe ff ff       	jmp    80486a0 <_init+0x24>

080487f0 <sprintf@plt>:
 80487f0:	ff 25 54 b1 04 08    	jmp    *0x804b154
 80487f6:	68 a0 00 00 00       	push   $0xa0
 80487fb:	e9 a0 fe ff ff       	jmp    80486a0 <_init+0x24>

08048800 <socket@plt>:
 8048800:	ff 25 58 b1 04 08    	jmp    *0x804b158
 8048806:	68 a8 00 00 00       	push   $0xa8
 804880b:	e9 90 fe ff ff       	jmp    80486a0 <_init+0x24>

08048810 <gethostbyname@plt>:
 8048810:	ff 25 5c b1 04 08    	jmp    *0x804b15c
 8048816:	68 b0 00 00 00       	push   $0xb0
 804881b:	e9 80 fe ff ff       	jmp    80486a0 <_init+0x24>

08048820 <strtol@plt>:
 8048820:	ff 25 60 b1 04 08    	jmp    *0x804b160
 8048826:	68 b8 00 00 00       	push   $0xb8
 804882b:	e9 70 fe ff ff       	jmp    80486a0 <_init+0x24>

08048830 <connect@plt>:
 8048830:	ff 25 64 b1 04 08    	jmp    *0x804b164
 8048836:	68 c0 00 00 00       	push   $0xc0
 804883b:	e9 60 fe ff ff       	jmp    80486a0 <_init+0x24>

08048840 <close@plt>:
 8048840:	ff 25 68 b1 04 08    	jmp    *0x804b168
 8048846:	68 c8 00 00 00       	push   $0xc8
 804884b:	e9 50 fe ff ff       	jmp    80486a0 <_init+0x24>

08048850 <__ctype_b_loc@plt>:
 8048850:	ff 25 6c b1 04 08    	jmp    *0x804b16c
 8048856:	68 d0 00 00 00       	push   $0xd0
 804885b:	e9 40 fe ff ff       	jmp    80486a0 <_init+0x24>

Disassembly of section .text:

08048860 <_start>:
 8048860:	31 ed                	xor    %ebp,%ebp
 8048862:	5e                   	pop    %esi
 8048863:	89 e1                	mov    %esp,%ecx
 8048865:	83 e4 f0             	and    $0xfffffff0,%esp
 8048868:	50                   	push   %eax
 8048869:	54                   	push   %esp
 804886a:	52                   	push   %edx
 804886b:	68 50 9d 04 08       	push   $0x8049d50
 8048870:	68 e0 9c 04 08       	push   $0x8049ce0
 8048875:	51                   	push   %ecx
 8048876:	56                   	push   %esi
 8048877:	68 5b 89 04 08       	push   $0x804895b
 804887c:	e8 0f ff ff ff       	call   8048790 <__libc_start_main@plt>
 8048881:	f4                   	hlt    
 8048882:	66 90                	xchg   %ax,%ax
 8048884:	66 90                	xchg   %ax,%ax
 8048886:	66 90                	xchg   %ax,%ax
 8048888:	66 90                	xchg   %ax,%ax
 804888a:	66 90                	xchg   %ax,%ax
 804888c:	66 90                	xchg   %ax,%ax
 804888e:	66 90                	xchg   %ax,%ax

08048890 <__x86.get_pc_thunk.bx>:
 8048890:	8b 1c 24             	mov    (%esp),%ebx
 8048893:	c3                   	ret    
 8048894:	66 90                	xchg   %ax,%ax
 8048896:	66 90                	xchg   %ax,%ax
 8048898:	66 90                	xchg   %ax,%ax
 804889a:	66 90                	xchg   %ax,%ax
 804889c:	66 90                	xchg   %ax,%ax
 804889e:	66 90                	xchg   %ax,%ax

080488a0 <deregister_tm_clones>:
 80488a0:	b8 c3 b4 04 08       	mov    $0x804b4c3,%eax
 80488a5:	2d c0 b4 04 08       	sub    $0x804b4c0,%eax
 80488aa:	83 f8 06             	cmp    $0x6,%eax
 80488ad:	76 1a                	jbe    80488c9 <deregister_tm_clones+0x29>
 80488af:	b8 00 00 00 00       	mov    $0x0,%eax
 80488b4:	85 c0                	test   %eax,%eax
 80488b6:	74 11                	je     80488c9 <deregister_tm_clones+0x29>
 80488b8:	55                   	push   %ebp
 80488b9:	89 e5                	mov    %esp,%ebp
 80488bb:	83 ec 14             	sub    $0x14,%esp
 80488be:	68 c0 b4 04 08       	push   $0x804b4c0
 80488c3:	ff d0                	call   *%eax
 80488c5:	83 c4 10             	add    $0x10,%esp
 80488c8:	c9                   	leave  
 80488c9:	f3 c3                	repz ret 
 80488cb:	90                   	nop
 80488cc:	8d 74 26 00          	lea    0x0(%esi,%eiz,1),%esi

080488d0 <register_tm_clones>:
 80488d0:	b8 c0 b4 04 08       	mov    $0x804b4c0,%eax
 80488d5:	2d c0 b4 04 08       	sub    $0x804b4c0,%eax
 80488da:	c1 f8 02             	sar    $0x2,%eax
 80488dd:	89 c2                	mov    %eax,%edx
 80488df:	c1 ea 1f             	shr    $0x1f,%edx
 80488e2:	01 d0                	add    %edx,%eax
 80488e4:	d1 f8                	sar    %eax
 80488e6:	74 1b                	je     8048903 <register_tm_clones+0x33>
 80488e8:	ba 00 00 00 00       	mov    $0x0,%edx
 80488ed:	85 d2                	test   %edx,%edx
 80488ef:	74 12                	je     8048903 <register_tm_clones+0x33>
 80488f1:	55                   	push   %ebp
 80488f2:	89 e5                	mov    %esp,%ebp
 80488f4:	83 ec 10             	sub    $0x10,%esp
 80488f7:	50                   	push   %eax
 80488f8:	68 c0 b4 04 08       	push   $0x804b4c0
 80488fd:	ff d2                	call   *%edx
 80488ff:	83 c4 10             	add    $0x10,%esp
 8048902:	c9                   	leave  
 8048903:	f3 c3                	repz ret 
 8048905:	8d 74 26 00          	lea    0x0(%esi,%eiz,1),%esi
 8048909:	8d bc 27 00 00 00 00 	lea    0x0(%edi,%eiz,1),%edi

08048910 <__do_global_dtors_aux>:
 8048910:	80 3d e4 b4 04 08 00 	cmpb   $0x0,0x804b4e4
 8048917:	75 13                	jne    804892c <__do_global_dtors_aux+0x1c>
 8048919:	55                   	push   %ebp
 804891a:	89 e5                	mov    %esp,%ebp
 804891c:	83 ec 08             	sub    $0x8,%esp
 804891f:	e8 7c ff ff ff       	call   80488a0 <deregister_tm_clones>
 8048924:	c6 05 e4 b4 04 08 01 	movb   $0x1,0x804b4e4
 804892b:	c9                   	leave  
 804892c:	f3 c3                	repz ret 
 804892e:	66 90                	xchg   %ax,%ax

08048930 <frame_dummy>:
 8048930:	b8 08 b0 04 08       	mov    $0x804b008,%eax
 8048935:	8b 10                	mov    (%eax),%edx
 8048937:	85 d2                	test   %edx,%edx
 8048939:	75 05                	jne    8048940 <frame_dummy+0x10>
 804893b:	eb 93                	jmp    80488d0 <register_tm_clones>
 804893d:	8d 76 00             	lea    0x0(%esi),%esi
 8048940:	ba 00 00 00 00       	mov    $0x0,%edx
 8048945:	85 d2                	test   %edx,%edx
 8048947:	74 f2                	je     804893b <frame_dummy+0xb>
 8048949:	55                   	push   %ebp
 804894a:	89 e5                	mov    %esp,%ebp
 804894c:	83 ec 14             	sub    $0x14,%esp
 804894f:	50                   	push   %eax
 8048950:	ff d2                	call   *%edx
 8048952:	83 c4 10             	add    $0x10,%esp
 8048955:	c9                   	leave  
 8048956:	e9 75 ff ff ff       	jmp    80488d0 <register_tm_clones>

0804895b <main>:
 804895b:	8d 4c 24 04          	lea    0x4(%esp),%ecx
 804895f:	83 e4 f0             	and    $0xfffffff0,%esp
 8048962:	ff 71 fc             	pushl  -0x4(%ecx)
 8048965:	55                   	push   %ebp
 8048966:	89 e5                	mov    %esp,%ebp
 8048968:	53                   	push   %ebx
 8048969:	51                   	push   %ecx
 804896a:	8b 01                	mov    (%ecx),%eax
 804896c:	8b 59 04             	mov    0x4(%ecx),%ebx
 804896f:	83 f8 01             	cmp    $0x1,%eax
 8048972:	75 0c                	jne    8048980 <main+0x25>
 8048974:	a1 c4 b4 04 08       	mov    0x804b4c4,%eax
 8048979:	a3 ec b4 04 08       	mov    %eax,0x804b4ec
 804897e:	eb 5a                	jmp    80489da <main+0x7f>
 8048980:	83 f8 02             	cmp    $0x2,%eax
 8048983:	75 3a                	jne    80489bf <main+0x64>
 8048985:	83 ec 08             	sub    $0x8,%esp
 8048988:	68 88 9d 04 08       	push   $0x8049d88
 804898d:	ff 73 04             	pushl  0x4(%ebx)
 8048990:	e8 3b fe ff ff       	call   80487d0 <fopen@plt>
 8048995:	a3 ec b4 04 08       	mov    %eax,0x804b4ec
 804899a:	83 c4 10             	add    $0x10,%esp
 804899d:	85 c0                	test   %eax,%eax
 804899f:	75 39                	jne    80489da <main+0x7f>
 80489a1:	83 ec 04             	sub    $0x4,%esp
 80489a4:	ff 73 04             	pushl  0x4(%ebx)
 80489a7:	ff 33                	pushl  (%ebx)
 80489a9:	68 8a 9d 04 08       	push   $0x8049d8a
 80489ae:	e8 0d fd ff ff       	call   80486c0 <printf@plt>
 80489b3:	c7 04 24 08 00 00 00 	movl   $0x8,(%esp)
 80489ba:	e8 c1 fd ff ff       	call   8048780 <exit@plt>
 80489bf:	83 ec 08             	sub    $0x8,%esp
 80489c2:	ff 33                	pushl  (%ebx)
 80489c4:	68 a7 9d 04 08       	push   $0x8049da7
 80489c9:	e8 f2 fc ff ff       	call   80486c0 <printf@plt>
 80489ce:	c7 04 24 08 00 00 00 	movl   $0x8,(%esp)
 80489d5:	e8 a6 fd ff ff       	call   8048780 <exit@plt>
 80489da:	e8 55 05 00 00       	call   8048f34 <initialize_bomb>
 80489df:	83 ec 0c             	sub    $0xc,%esp
 80489e2:	68 0c 9e 04 08       	push   $0x8049e0c
 80489e7:	e8 74 fd ff ff       	call   8048760 <puts@plt>
 80489ec:	c7 04 24 48 9e 04 08 	movl   $0x8049e48,(%esp)
 80489f3:	e8 68 fd ff ff       	call   8048760 <puts@plt>
 80489f8:	e8 29 06 00 00       	call   8049026 <read_line>
 80489fd:	89 04 24             	mov    %eax,(%esp)
 8048a00:	e8 ad 00 00 00       	call   8048ab2 <phase_1>
 8048a05:	e8 15 07 00 00       	call   804911f <phase_defused>
 8048a0a:	c7 04 24 74 9e 04 08 	movl   $0x8049e74,(%esp)
 8048a11:	e8 4a fd ff ff       	call   8048760 <puts@plt>
 8048a16:	e8 0b 06 00 00       	call   8049026 <read_line>
 8048a1b:	89 04 24             	mov    %eax,(%esp)
 8048a1e:	e8 b0 00 00 00       	call   8048ad3 <phase_2>
 8048a23:	e8 f7 06 00 00       	call   804911f <phase_defused>
 8048a28:	c7 04 24 c1 9d 04 08 	movl   $0x8049dc1,(%esp)
 8048a2f:	e8 2c fd ff ff       	call   8048760 <puts@plt>
 8048a34:	e8 ed 05 00 00       	call   8049026 <read_line>
 8048a39:	89 04 24             	mov    %eax,(%esp)
 8048a3c:	e8 dc 00 00 00       	call   8048b1d <phase_3>
 8048a41:	e8 d9 06 00 00       	call   804911f <phase_defused>
 8048a46:	c7 04 24 df 9d 04 08 	movl   $0x8049ddf,(%esp)
 8048a4d:	e8 0e fd ff ff       	call   8048760 <puts@plt>
 8048a52:	e8 cf 05 00 00       	call   8049026 <read_line>
 8048a57:	89 04 24             	mov    %eax,(%esp)
 8048a5a:	e8 a7 01 00 00       	call   8048c06 <phase_4>
 8048a5f:	e8 bb 06 00 00       	call   804911f <phase_defused>
 8048a64:	c7 04 24 a0 9e 04 08 	movl   $0x8049ea0,(%esp)
 8048a6b:	e8 f0 fc ff ff       	call   8048760 <puts@plt>
 8048a70:	e8 b1 05 00 00       	call   8049026 <read_line>
 8048a75:	89 04 24             	mov    %eax,(%esp)
 8048a78:	e8 df 01 00 00       	call   8048c5c <phase_5>
 8048a7d:	e8 9d 06 00 00       	call   804911f <phase_defused>
 8048a82:	c7 04 24 ee 9d 04 08 	movl   $0x8049dee,(%esp)
 8048a89:	e8 d2 fc ff ff       	call   8048760 <puts@plt>
 8048a8e:	e8 93 05 00 00       	call   8049026 <read_line>
 8048a93:	89 04 24             	mov    %eax,(%esp)
 8048a96:	e8 30 02 00 00       	call   8048ccb <phase_6>
 8048a9b:	e8 7f 06 00 00       	call   804911f <phase_defused>
 8048aa0:	83 c4 10             	add    $0x10,%esp
 8048aa3:	b8 00 00 00 00       	mov    $0x0,%eax
 8048aa8:	8d 65 f8             	lea    -0x8(%ebp),%esp
 8048aab:	59                   	pop    %ecx
 8048aac:	5b                   	pop    %ebx
 8048aad:	5d                   	pop    %ebp
 8048aae:	8d 61 fc             	lea    -0x4(%ecx),%esp
 8048ab1:	c3                   	ret    

08048ab2 <phase_1>:
 8048ab2:	83 ec 14             	sub    $0x14,%esp
 8048ab5:	68 c4 9e 04 08       	push   $0x8049ec4
 8048aba:	ff 74 24 1c          	pushl  0x1c(%esp)
 8048abe:	e8 0c 04 00 00       	call   8048ecf <strings_not_equal>
 8048ac3:	83 c4 10             	add    $0x10,%esp
 8048ac6:	85 c0                	test   %eax,%eax
 8048ac8:	74 05                	je     8048acf <phase_1+0x1d>
 8048aca:	e8 f7 04 00 00       	call   8048fc6 <explode_bomb>
 8048acf:	83 c4 0c             	add    $0xc,%esp
 8048ad2:	c3                   	ret    

08048ad3 <phase_2>:
 8048ad3:	53                   	push   %ebx
 8048ad4:	83 ec 30             	sub    $0x30,%esp
 8048ad7:	8d 44 24 10          	lea    0x10(%esp),%eax
 8048adb:	50                   	push   %eax
 8048adc:	ff 74 24 3c          	pushl  0x3c(%esp)
 8048ae0:	e8 06 05 00 00       	call   8048feb <read_six_numbers>
 8048ae5:	83 c4 10             	add    $0x10,%esp
 8048ae8:	83 7c 24 08 00       	cmpl   $0x0,0x8(%esp)
 8048aed:	79 22                	jns    8048b11 <phase_2+0x3e>
 8048aef:	e8 d2 04 00 00       	call   8048fc6 <explode_bomb>
 8048af4:	eb 1b                	jmp    8048b11 <phase_2+0x3e>
 8048af6:	89 d8                	mov    %ebx,%eax
 8048af8:	03 44 9c 04          	add    0x4(%esp,%ebx,4),%eax
 8048afc:	39 44 9c 08          	cmp    %eax,0x8(%esp,%ebx,4)
 8048b00:	74 05                	je     8048b07 <phase_2+0x34>
 8048b02:	e8 bf 04 00 00       	call   8048fc6 <explode_bomb>
 8048b07:	83 c3 01             	add    $0x1,%ebx
 8048b0a:	83 fb 06             	cmp    $0x6,%ebx
 8048b0d:	75 e7                	jne    8048af6 <phase_2+0x23>
 8048b0f:	eb 07                	jmp    8048b18 <phase_2+0x45>
 8048b11:	bb 01 00 00 00       	mov    $0x1,%ebx
 8048b16:	eb de                	jmp    8048af6 <phase_2+0x23>
 8048b18:	83 c4 28             	add    $0x28,%esp
 8048b1b:	5b                   	pop    %ebx
 8048b1c:	c3                   	ret    

08048b1d <phase_3>:
 8048b1d:	83 ec 1c             	sub    $0x1c,%esp
 8048b20:	8d 44 24 08          	lea    0x8(%esp),%eax
 8048b24:	50                   	push   %eax
 8048b25:	8d 44 24 10          	lea    0x10(%esp),%eax
 8048b29:	50                   	push   %eax
 8048b2a:	68 cf a0 04 08       	push   $0x804a0cf
 8048b2f:	ff 74 24 2c          	pushl  0x2c(%esp)
 8048b33:	e8 88 fc ff ff       	call   80487c0 <__isoc99_sscanf@plt>
 8048b38:	83 c4 10             	add    $0x10,%esp
 8048b3b:	83 f8 01             	cmp    $0x1,%eax
 8048b3e:	7f 05                	jg     8048b45 <phase_3+0x28>
 8048b40:	e8 81 04 00 00       	call   8048fc6 <explode_bomb>
 8048b45:	83 7c 24 0c 07       	cmpl   $0x7,0xc(%esp)
 8048b4a:	77 3c                	ja     8048b88 <phase_3+0x6b>
 8048b4c:	8b 44 24 0c          	mov    0xc(%esp),%eax
 8048b50:	ff 24 85 40 9f 04 08 	jmp    *0x8049f40(,%eax,4)
 8048b57:	b8 76 02 00 00       	mov    $0x276,%eax
 8048b5c:	eb 3b                	jmp    8048b99 <phase_3+0x7c>
 8048b5e:	b8 c3 01 00 00       	mov    $0x1c3,%eax
 8048b63:	eb 34                	jmp    8048b99 <phase_3+0x7c>
 8048b65:	b8 10 02 00 00       	mov    $0x210,%eax
 8048b6a:	eb 2d                	jmp    8048b99 <phase_3+0x7c>
 8048b6c:	b8 d9 01 00 00       	mov    $0x1d9,%eax
 8048b71:	eb 26                	jmp    8048b99 <phase_3+0x7c>
 8048b73:	b8 d8 01 00 00       	mov    $0x1d8,%eax
 8048b78:	eb 1f                	jmp    8048b99 <phase_3+0x7c>
 8048b7a:	b8 2a 03 00 00       	mov    $0x32a,%eax
 8048b7f:	eb 18                	jmp    8048b99 <phase_3+0x7c>
 8048b81:	b8 5d 03 00 00       	mov    $0x35d,%eax
 8048b86:	eb 11                	jmp    8048b99 <phase_3+0x7c>
 8048b88:	e8 39 04 00 00       	call   8048fc6 <explode_bomb>
 8048b8d:	b8 00 00 00 00       	mov    $0x0,%eax
 8048b92:	eb 05                	jmp    8048b99 <phase_3+0x7c>
 8048b94:	b8 dc 03 00 00       	mov    $0x3dc,%eax
 8048b99:	3b 44 24 08          	cmp    0x8(%esp),%eax
 8048b9d:	74 05                	je     8048ba4 <phase_3+0x87>
 8048b9f:	e8 22 04 00 00       	call   8048fc6 <explode_bomb>
 8048ba4:	83 c4 1c             	add    $0x1c,%esp
 8048ba7:	c3                   	ret    

08048ba8 <func4>:
 8048ba8:	56                   	push   %esi
 8048ba9:	53                   	push   %ebx
 8048baa:	83 ec 04             	sub    $0x4,%esp
 8048bad:	8b 4c 24 10          	mov    0x10(%esp),%ecx
 8048bb1:	8b 5c 24 14          	mov    0x14(%esp),%ebx
 8048bb5:	8b 74 24 18          	mov    0x18(%esp),%esi
 8048bb9:	89 f0                	mov    %esi,%eax
 8048bbb:	29 d8                	sub    %ebx,%eax
 8048bbd:	89 c2                	mov    %eax,%edx
 8048bbf:	c1 ea 1f             	shr    $0x1f,%edx
 8048bc2:	01 d0                	add    %edx,%eax
 8048bc4:	d1 f8                	sar    %eax
 8048bc6:	8d 14 18             	lea    (%eax,%ebx,1),%edx
 8048bc9:	39 ca                	cmp    %ecx,%edx
 8048bcb:	7e 15                	jle    8048be2 <func4+0x3a>
 8048bcd:	83 ec 04             	sub    $0x4,%esp
 8048bd0:	83 ea 01             	sub    $0x1,%edx
 8048bd3:	52                   	push   %edx
 8048bd4:	53                   	push   %ebx
 8048bd5:	51                   	push   %ecx
 8048bd6:	e8 cd ff ff ff       	call   8048ba8 <func4>
 8048bdb:	83 c4 10             	add    $0x10,%esp
 8048bde:	01 c0                	add    %eax,%eax
 8048be0:	eb 1e                	jmp    8048c00 <func4+0x58>
 8048be2:	b8 00 00 00 00       	mov    $0x0,%eax
 8048be7:	39 ca                	cmp    %ecx,%edx
 8048be9:	7d 15                	jge    8048c00 <func4+0x58>
 8048beb:	83 ec 04             	sub    $0x4,%esp
 8048bee:	56                   	push   %esi
 8048bef:	83 c2 01             	add    $0x1,%edx
 8048bf2:	52                   	push   %edx
 8048bf3:	51                   	push   %ecx
 8048bf4:	e8 af ff ff ff       	call   8048ba8 <func4>
 8048bf9:	83 c4 10             	add    $0x10,%esp
 8048bfc:	8d 44 00 01          	lea    0x1(%eax,%eax,1),%eax
 8048c00:	83 c4 04             	add    $0x4,%esp
 8048c03:	5b                   	pop    %ebx
 8048c04:	5e                   	pop    %esi
 8048c05:	c3                   	ret    

08048c06 <phase_4>:
 8048c06:	83 ec 1c             	sub    $0x1c,%esp
 8048c09:	8d 44 24 08          	lea    0x8(%esp),%eax
 8048c0d:	50                   	push   %eax
 8048c0e:	8d 44 24 10          	lea    0x10(%esp),%eax
 8048c12:	50                   	push   %eax
 8048c13:	68 cf a0 04 08       	push   $0x804a0cf
 8048c18:	ff 74 24 2c          	pushl  0x2c(%esp)
 8048c1c:	e8 9f fb ff ff       	call   80487c0 <__isoc99_sscanf@plt>
 8048c21:	83 c4 10             	add    $0x10,%esp
 8048c24:	83 f8 02             	cmp    $0x2,%eax
 8048c27:	75 07                	jne    8048c30 <phase_4+0x2a>
 8048c29:	83 7c 24 0c 0e       	cmpl   $0xe,0xc(%esp)
 8048c2e:	76 05                	jbe    8048c35 <phase_4+0x2f>
 8048c30:	e8 91 03 00 00       	call   8048fc6 <explode_bomb>
 8048c35:	83 ec 04             	sub    $0x4,%esp
 8048c38:	6a 0e                	push   $0xe
 8048c3a:	6a 00                	push   $0x0
 8048c3c:	ff 74 24 18          	pushl  0x18(%esp)
 8048c40:	e8 63 ff ff ff       	call   8048ba8 <func4>
 8048c45:	83 c4 10             	add    $0x10,%esp
 8048c48:	85 c0                	test   %eax,%eax
 8048c4a:	75 07                	jne    8048c53 <phase_4+0x4d>
 8048c4c:	83 7c 24 08 00       	cmpl   $0x0,0x8(%esp)
 8048c51:	74 05                	je     8048c58 <phase_4+0x52>
 8048c53:	e8 6e 03 00 00       	call   8048fc6 <explode_bomb>
 8048c58:	83 c4 1c             	add    $0x1c,%esp
 8048c5b:	c3                   	ret    

08048c5c <phase_5>:
 8048c5c:	83 ec 1c             	sub    $0x1c,%esp
 8048c5f:	8d 44 24 08          	lea    0x8(%esp),%eax
 8048c63:	50                   	push   %eax
 8048c64:	8d 44 24 10          	lea    0x10(%esp),%eax
 8048c68:	50                   	push   %eax
 8048c69:	68 cf a0 04 08       	push   $0x804a0cf
 8048c6e:	ff 74 24 2c          	pushl  0x2c(%esp)
 8048c72:	e8 49 fb ff ff       	call   80487c0 <__isoc99_sscanf@plt>
 8048c77:	83 c4 10             	add    $0x10,%esp
 8048c7a:	83 f8 01             	cmp    $0x1,%eax
 8048c7d:	7f 05                	jg     8048c84 <phase_5+0x28>
 8048c7f:	e8 42 03 00 00       	call   8048fc6 <explode_bomb>
 8048c84:	8b 44 24 0c          	mov    0xc(%esp),%eax
 8048c88:	83 e0 0f             	and    $0xf,%eax
 8048c8b:	89 44 24 0c          	mov    %eax,0xc(%esp)
 8048c8f:	83 f8 0f             	cmp    $0xf,%eax
 8048c92:	74 2e                	je     8048cc2 <phase_5+0x66>
 8048c94:	b9 00 00 00 00       	mov    $0x0,%ecx
 8048c99:	ba 00 00 00 00       	mov    $0x0,%edx
 8048c9e:	83 c2 01             	add    $0x1,%edx
 8048ca1:	8b 04 85 80 9f 04 08 	mov    0x8049f80(,%eax,4),%eax
 8048ca8:	01 c1                	add    %eax,%ecx
 8048caa:	83 f8 0f             	cmp    $0xf,%eax
 8048cad:	75 ef                	jne    8048c9e <phase_5+0x42>
 8048caf:	c7 44 24 0c 0f 00 00 	movl   $0xf,0xc(%esp)
 8048cb6:	00 
 8048cb7:	83 fa 0f             	cmp    $0xf,%edx
 8048cba:	75 06                	jne    8048cc2 <phase_5+0x66>
 8048cbc:	3b 4c 24 08          	cmp    0x8(%esp),%ecx
 8048cc0:	74 05                	je     8048cc7 <phase_5+0x6b>
 8048cc2:	e8 ff 02 00 00       	call   8048fc6 <explode_bomb>
 8048cc7:	83 c4 1c             	add    $0x1c,%esp
 8048cca:	c3                   	ret    

08048ccb <phase_6>:
 8048ccb:	56                   	push   %esi
 8048ccc:	53                   	push   %ebx
 8048ccd:	83 ec 3c             	sub    $0x3c,%esp
 8048cd0:	8d 44 24 20          	lea    0x20(%esp),%eax
 8048cd4:	50                   	push   %eax
 8048cd5:	ff 74 24 4c          	pushl  0x4c(%esp)
 8048cd9:	e8 0d 03 00 00       	call   8048feb <read_six_numbers>
 8048cde:	83 c4 10             	add    $0x10,%esp
 8048ce1:	be 00 00 00 00       	mov    $0x0,%esi
 8048ce6:	8b 44 b4 18          	mov    0x18(%esp,%esi,4),%eax
 8048cea:	83 e8 01             	sub    $0x1,%eax
 8048ced:	83 f8 05             	cmp    $0x5,%eax
 8048cf0:	76 05                	jbe    8048cf7 <phase_6+0x2c>
 8048cf2:	e8 cf 02 00 00       	call   8048fc6 <explode_bomb>
 8048cf7:	83 c6 01             	add    $0x1,%esi
 8048cfa:	83 fe 06             	cmp    $0x6,%esi
 8048cfd:	74 32                	je     8048d31 <phase_6+0x66>
 8048cff:	89 f3                	mov    %esi,%ebx
 8048d01:	8b 44 9c 18          	mov    0x18(%esp,%ebx,4),%eax
 8048d05:	39 44 b4 14          	cmp    %eax,0x14(%esp,%esi,4)
 8048d09:	75 05                	jne    8048d10 <phase_6+0x45>
 8048d0b:	e8 b6 02 00 00       	call   8048fc6 <explode_bomb>
 8048d10:	83 c3 01             	add    $0x1,%ebx
 8048d13:	83 fb 05             	cmp    $0x5,%ebx
 8048d16:	7e e9                	jle    8048d01 <phase_6+0x36>
 8048d18:	eb cc                	jmp    8048ce6 <phase_6+0x1b>
 8048d1a:	8b 52 08             	mov    0x8(%edx),%edx
 8048d1d:	83 c0 01             	add    $0x1,%eax
 8048d20:	39 c8                	cmp    %ecx,%eax
 8048d22:	75 f6                	jne    8048d1a <phase_6+0x4f>
 8048d24:	89 14 b4             	mov    %edx,(%esp,%esi,4)
 8048d27:	83 c3 01             	add    $0x1,%ebx
 8048d2a:	83 fb 06             	cmp    $0x6,%ebx
 8048d2d:	75 07                	jne    8048d36 <phase_6+0x6b>
 8048d2f:	eb 1c                	jmp    8048d4d <phase_6+0x82>
 8048d31:	bb 00 00 00 00       	mov    $0x0,%ebx
 8048d36:	89 de                	mov    %ebx,%esi
 8048d38:	8b 4c 9c 18          	mov    0x18(%esp,%ebx,4),%ecx
 8048d3c:	b8 01 00 00 00       	mov    $0x1,%eax
 8048d41:	ba 3c b2 04 08       	mov    $0x804b23c,%edx
 8048d46:	83 f9 01             	cmp    $0x1,%ecx
 8048d49:	7f cf                	jg     8048d1a <phase_6+0x4f>
 8048d4b:	eb d7                	jmp    8048d24 <phase_6+0x59>
 8048d4d:	8b 1c 24             	mov    (%esp),%ebx
 8048d50:	89 e0                	mov    %esp,%eax
 8048d52:	8d 74 24 14          	lea    0x14(%esp),%esi
 8048d56:	89 d9                	mov    %ebx,%ecx
 8048d58:	8b 50 04             	mov    0x4(%eax),%edx
 8048d5b:	89 51 08             	mov    %edx,0x8(%ecx)
 8048d5e:	83 c0 04             	add    $0x4,%eax
 8048d61:	89 d1                	mov    %edx,%ecx
 8048d63:	39 f0                	cmp    %esi,%eax
 8048d65:	75 f1                	jne    8048d58 <phase_6+0x8d>
 8048d67:	c7 42 08 00 00 00 00 	movl   $0x0,0x8(%edx)
 8048d6e:	be 05 00 00 00       	mov    $0x5,%esi
 8048d73:	8b 43 08             	mov    0x8(%ebx),%eax
 8048d76:	8b 00                	mov    (%eax),%eax
 8048d78:	39 03                	cmp    %eax,(%ebx)
 8048d7a:	7e 05                	jle    8048d81 <phase_6+0xb6>
 8048d7c:	e8 45 02 00 00       	call   8048fc6 <explode_bomb>
 8048d81:	8b 5b 08             	mov    0x8(%ebx),%ebx
 8048d84:	83 ee 01             	sub    $0x1,%esi
 8048d87:	75 ea                	jne    8048d73 <phase_6+0xa8>
 8048d89:	83 c4 34             	add    $0x34,%esp
 8048d8c:	5b                   	pop    %ebx
 8048d8d:	5e                   	pop    %esi
 8048d8e:	c3                   	ret    

08048d8f <fun7>:
 8048d8f:	53                   	push   %ebx
 8048d90:	83 ec 08             	sub    $0x8,%esp
 8048d93:	8b 54 24 10          	mov    0x10(%esp),%edx
 8048d97:	8b 4c 24 14          	mov    0x14(%esp),%ecx
 8048d9b:	85 d2                	test   %edx,%edx
 8048d9d:	74 37                	je     8048dd6 <fun7+0x47>
 8048d9f:	8b 1a                	mov    (%edx),%ebx
 8048da1:	39 cb                	cmp    %ecx,%ebx
 8048da3:	7e 13                	jle    8048db8 <fun7+0x29>
 8048da5:	83 ec 08             	sub    $0x8,%esp
 8048da8:	51                   	push   %ecx
 8048da9:	ff 72 04             	pushl  0x4(%edx)
 8048dac:	e8 de ff ff ff       	call   8048d8f <fun7>
 8048db1:	83 c4 10             	add    $0x10,%esp
 8048db4:	01 c0                	add    %eax,%eax
 8048db6:	eb 23                	jmp    8048ddb <fun7+0x4c>
 8048db8:	b8 00 00 00 00       	mov    $0x0,%eax
 8048dbd:	39 cb                	cmp    %ecx,%ebx
 8048dbf:	74 1a                	je     8048ddb <fun7+0x4c>
 8048dc1:	83 ec 08             	sub    $0x8,%esp
 8048dc4:	51                   	push   %ecx
 8048dc5:	ff 72 08             	pushl  0x8(%edx)
 8048dc8:	e8 c2 ff ff ff       	call   8048d8f <fun7>
 8048dcd:	83 c4 10             	add    $0x10,%esp
 8048dd0:	8d 44 00 01          	lea    0x1(%eax,%eax,1),%eax
 8048dd4:	eb 05                	jmp    8048ddb <fun7+0x4c>
 8048dd6:	b8 ff ff ff ff       	mov    $0xffffffff,%eax
 8048ddb:	83 c4 08             	add    $0x8,%esp
 8048dde:	5b                   	pop    %ebx
 8048ddf:	c3                   	ret    

08048de0 <secret_phase>:
 8048de0:	53                   	push   %ebx
 8048de1:	83 ec 08             	sub    $0x8,%esp
 8048de4:	e8 3d 02 00 00       	call   8049026 <read_line>
 8048de9:	83 ec 04             	sub    $0x4,%esp
 8048dec:	6a 0a                	push   $0xa
 8048dee:	6a 00                	push   $0x0
 8048df0:	50                   	push   %eax
 8048df1:	e8 2a fa ff ff       	call   8048820 <strtol@plt>
 8048df6:	89 c3                	mov    %eax,%ebx
 8048df8:	8d 40 ff             	lea    -0x1(%eax),%eax
 8048dfb:	83 c4 10             	add    $0x10,%esp
 8048dfe:	3d e8 03 00 00       	cmp    $0x3e8,%eax
 8048e03:	76 05                	jbe    8048e0a <secret_phase+0x2a>
 8048e05:	e8 bc 01 00 00       	call   8048fc6 <explode_bomb>
 8048e0a:	83 ec 08             	sub    $0x8,%esp
 8048e0d:	53                   	push   %ebx
 8048e0e:	68 88 b1 04 08       	push   $0x804b188
 8048e13:	e8 77 ff ff ff       	call   8048d8f <fun7>
 8048e18:	83 c4 10             	add    $0x10,%esp
 8048e1b:	83 f8 05             	cmp    $0x5,%eax
 8048e1e:	74 05                	je     8048e25 <secret_phase+0x45>
 8048e20:	e8 a1 01 00 00       	call   8048fc6 <explode_bomb>
 8048e25:	83 ec 0c             	sub    $0xc,%esp
 8048e28:	68 f0 9e 04 08       	push   $0x8049ef0
 8048e2d:	e8 2e f9 ff ff       	call   8048760 <puts@plt>
 8048e32:	e8 e8 02 00 00       	call   804911f <phase_defused>
 8048e37:	83 c4 18             	add    $0x18,%esp
 8048e3a:	5b                   	pop    %ebx
 8048e3b:	c3                   	ret    

08048e3c <sig_handler>:
 8048e3c:	83 ec 18             	sub    $0x18,%esp
 8048e3f:	68 c0 9f 04 08       	push   $0x8049fc0
 8048e44:	e8 17 f9 ff ff       	call   8048760 <puts@plt>
 8048e49:	c7 04 24 03 00 00 00 	movl   $0x3,(%esp)
 8048e50:	e8 bb f8 ff ff       	call   8048710 <sleep@plt>
 8048e55:	c7 04 24 82 a0 04 08 	movl   $0x804a082,(%esp)
 8048e5c:	e8 5f f8 ff ff       	call   80486c0 <printf@plt>
 8048e61:	83 c4 04             	add    $0x4,%esp
 8048e64:	ff 35 e0 b4 04 08    	pushl  0x804b4e0
 8048e6a:	e8 61 f8 ff ff       	call   80486d0 <fflush@plt>
 8048e6f:	c7 04 24 01 00 00 00 	movl   $0x1,(%esp)
 8048e76:	e8 95 f8 ff ff       	call   8048710 <sleep@plt>
 8048e7b:	c7 04 24 8a a0 04 08 	movl   $0x804a08a,(%esp)
 8048e82:	e8 d9 f8 ff ff       	call   8048760 <puts@plt>
 8048e87:	c7 04 24 10 00 00 00 	movl   $0x10,(%esp)
 8048e8e:	e8 ed f8 ff ff       	call   8048780 <exit@plt>

08048e93 <invalid_phase>:
 8048e93:	83 ec 14             	sub    $0x14,%esp
 8048e96:	ff 74 24 18          	pushl  0x18(%esp)
 8048e9a:	68 92 a0 04 08       	push   $0x804a092
 8048e9f:	e8 1c f8 ff ff       	call   80486c0 <printf@plt>
 8048ea4:	c7 04 24 08 00 00 00 	movl   $0x8,(%esp)
 8048eab:	e8 d0 f8 ff ff       	call   8048780 <exit@plt>

08048eb0 <string_length>:
 8048eb0:	8b 54 24 04          	mov    0x4(%esp),%edx
 8048eb4:	80 3a 00             	cmpb   $0x0,(%edx)
 8048eb7:	74 10                	je     8048ec9 <string_length+0x19>
 8048eb9:	b8 00 00 00 00       	mov    $0x0,%eax
 8048ebe:	83 c0 01             	add    $0x1,%eax
 8048ec1:	80 3c 02 00          	cmpb   $0x0,(%edx,%eax,1)
 8048ec5:	75 f7                	jne    8048ebe <string_length+0xe>
 8048ec7:	f3 c3                	repz ret 
 8048ec9:	b8 00 00 00 00       	mov    $0x0,%eax
 8048ece:	c3                   	ret    

08048ecf <strings_not_equal>:
 8048ecf:	57                   	push   %edi
 8048ed0:	56                   	push   %esi
 8048ed1:	53                   	push   %ebx
 8048ed2:	8b 5c 24 10          	mov    0x10(%esp),%ebx
 8048ed6:	8b 74 24 14          	mov    0x14(%esp),%esi
 8048eda:	53                   	push   %ebx
 8048edb:	e8 d0 ff ff ff       	call   8048eb0 <string_length>
 8048ee0:	89 c7                	mov    %eax,%edi
 8048ee2:	89 34 24             	mov    %esi,(%esp)
 8048ee5:	e8 c6 ff ff ff       	call   8048eb0 <string_length>
 8048eea:	83 c4 04             	add    $0x4,%esp
 8048eed:	ba 01 00 00 00       	mov    $0x1,%edx
 8048ef2:	39 c7                	cmp    %eax,%edi
 8048ef4:	75 38                	jne    8048f2e <strings_not_equal+0x5f>
 8048ef6:	0f b6 03             	movzbl (%ebx),%eax
 8048ef9:	84 c0                	test   %al,%al
 8048efb:	74 1e                	je     8048f1b <strings_not_equal+0x4c>
 8048efd:	3a 06                	cmp    (%esi),%al
 8048eff:	74 06                	je     8048f07 <strings_not_equal+0x38>
 8048f01:	eb 1f                	jmp    8048f22 <strings_not_equal+0x53>
 8048f03:	3a 06                	cmp    (%esi),%al
 8048f05:	75 22                	jne    8048f29 <strings_not_equal+0x5a>
 8048f07:	83 c3 01             	add    $0x1,%ebx
 8048f0a:	83 c6 01             	add    $0x1,%esi
 8048f0d:	0f b6 03             	movzbl (%ebx),%eax
 8048f10:	84 c0                	test   %al,%al
 8048f12:	75 ef                	jne    8048f03 <strings_not_equal+0x34>
 8048f14:	ba 00 00 00 00       	mov    $0x0,%edx
 8048f19:	eb 13                	jmp    8048f2e <strings_not_equal+0x5f>
 8048f1b:	ba 00 00 00 00       	mov    $0x0,%edx
 8048f20:	eb 0c                	jmp    8048f2e <strings_not_equal+0x5f>
 8048f22:	ba 01 00 00 00       	mov    $0x1,%edx
 8048f27:	eb 05                	jmp    8048f2e <strings_not_equal+0x5f>
 8048f29:	ba 01 00 00 00       	mov    $0x1,%edx
 8048f2e:	89 d0                	mov    %edx,%eax
 8048f30:	5b                   	pop    %ebx
 8048f31:	5e                   	pop    %esi
 8048f32:	5f                   	pop    %edi
 8048f33:	c3                   	ret    

08048f34 <initialize_bomb>:
 8048f34:	83 ec 14             	sub    $0x14,%esp
 8048f37:	68 3c 8e 04 08       	push   $0x8048e3c
 8048f3c:	6a 02                	push   $0x2
 8048f3e:	e8 bd f7 ff ff       	call   8048700 <signal@plt>
 8048f43:	83 c4 1c             	add    $0x1c,%esp
 8048f46:	c3                   	ret    

08048f47 <initialize_bomb_solve>:
 8048f47:	f3 c3                	repz ret 

08048f49 <blank_line>:
 8048f49:	56                   	push   %esi
 8048f4a:	53                   	push   %ebx
 8048f4b:	83 ec 04             	sub    $0x4,%esp
 8048f4e:	8b 74 24 10          	mov    0x10(%esp),%esi
 8048f52:	eb 14                	jmp    8048f68 <blank_line+0x1f>
 8048f54:	e8 f7 f8 ff ff       	call   8048850 <__ctype_b_loc@plt>
 8048f59:	83 c6 01             	add    $0x1,%esi
 8048f5c:	0f be db             	movsbl %bl,%ebx
 8048f5f:	8b 00                	mov    (%eax),%eax
 8048f61:	f6 44 58 01 20       	testb  $0x20,0x1(%eax,%ebx,2)
 8048f66:	74 0e                	je     8048f76 <blank_line+0x2d>
 8048f68:	0f b6 1e             	movzbl (%esi),%ebx
 8048f6b:	84 db                	test   %bl,%bl
 8048f6d:	75 e5                	jne    8048f54 <blank_line+0xb>
 8048f6f:	b8 01 00 00 00       	mov    $0x1,%eax
 8048f74:	eb 05                	jmp    8048f7b <blank_line+0x32>
 8048f76:	b8 00 00 00 00       	mov    $0x0,%eax
 8048f7b:	83 c4 04             	add    $0x4,%esp
 8048f7e:	5b                   	pop    %ebx
 8048f7f:	5e                   	pop    %esi
 8048f80:	c3                   	ret    

08048f81 <skip>:
 8048f81:	53                   	push   %ebx
 8048f82:	83 ec 08             	sub    $0x8,%esp
 8048f85:	83 ec 04             	sub    $0x4,%esp
 8048f88:	ff 35 ec b4 04 08    	pushl  0x804b4ec
 8048f8e:	6a 50                	push   $0x50
 8048f90:	a1 e8 b4 04 08       	mov    0x804b4e8,%eax
 8048f95:	8d 04 80             	lea    (%eax,%eax,4),%eax
 8048f98:	c1 e0 04             	shl    $0x4,%eax
 8048f9b:	05 00 b5 04 08       	add    $0x804b500,%eax
 8048fa0:	50                   	push   %eax
 8048fa1:	e8 4a f7 ff ff       	call   80486f0 <fgets@plt>
 8048fa6:	89 c3                	mov    %eax,%ebx
 8048fa8:	83 c4 10             	add    $0x10,%esp
 8048fab:	85 c0                	test   %eax,%eax
 8048fad:	74 10                	je     8048fbf <skip+0x3e>
 8048faf:	83 ec 0c             	sub    $0xc,%esp
 8048fb2:	50                   	push   %eax
 8048fb3:	e8 91 ff ff ff       	call   8048f49 <blank_line>
 8048fb8:	83 c4 10             	add    $0x10,%esp
 8048fbb:	85 c0                	test   %eax,%eax
 8048fbd:	75 c6                	jne    8048f85 <skip+0x4>
 8048fbf:	89 d8                	mov    %ebx,%eax
 8048fc1:	83 c4 08             	add    $0x8,%esp
 8048fc4:	5b                   	pop    %ebx
 8048fc5:	c3                   	ret    

08048fc6 <explode_bomb>:
 8048fc6:	83 ec 18             	sub    $0x18,%esp
 8048fc9:	68 a3 a0 04 08       	push   $0x804a0a3
 8048fce:	e8 8d f7 ff ff       	call   8048760 <puts@plt>
 8048fd3:	c7 04 24 ac a0 04 08 	movl   $0x804a0ac,(%esp)
 8048fda:	e8 81 f7 ff ff       	call   8048760 <puts@plt>
 8048fdf:	c7 04 24 08 00 00 00 	movl   $0x8,(%esp)
 8048fe6:	e8 95 f7 ff ff       	call   8048780 <exit@plt>

08048feb <read_six_numbers>:
 8048feb:	83 ec 0c             	sub    $0xc,%esp
 8048fee:	8b 44 24 14          	mov    0x14(%esp),%eax
 8048ff2:	8d 50 14             	lea    0x14(%eax),%edx
 8048ff5:	52                   	push   %edx
 8048ff6:	8d 50 10             	lea    0x10(%eax),%edx
 8048ff9:	52                   	push   %edx
 8048ffa:	8d 50 0c             	lea    0xc(%eax),%edx
 8048ffd:	52                   	push   %edx
 8048ffe:	8d 50 08             	lea    0x8(%eax),%edx
 8049001:	52                   	push   %edx
 8049002:	8d 50 04             	lea    0x4(%eax),%edx
 8049005:	52                   	push   %edx
 8049006:	50                   	push   %eax
 8049007:	68 c3 a0 04 08       	push   $0x804a0c3
 804900c:	ff 74 24 2c          	pushl  0x2c(%esp)
 8049010:	e8 ab f7 ff ff       	call   80487c0 <__isoc99_sscanf@plt>
 8049015:	83 c4 20             	add    $0x20,%esp
 8049018:	83 f8 05             	cmp    $0x5,%eax
 804901b:	7f 05                	jg     8049022 <read_six_numbers+0x37>
 804901d:	e8 a4 ff ff ff       	call   8048fc6 <explode_bomb>
 8049022:	83 c4 0c             	add    $0xc,%esp
 8049025:	c3                   	ret    

08049026 <read_line>:
 8049026:	57                   	push   %edi
 8049027:	56                   	push   %esi
 8049028:	53                   	push   %ebx
 8049029:	e8 53 ff ff ff       	call   8048f81 <skip>
 804902e:	85 c0                	test   %eax,%eax
 8049030:	75 70                	jne    80490a2 <read_line+0x7c>
 8049032:	a1 c4 b4 04 08       	mov    0x804b4c4,%eax
 8049037:	39 05 ec b4 04 08    	cmp    %eax,0x804b4ec
 804903d:	75 19                	jne    8049058 <read_line+0x32>
 804903f:	83 ec 0c             	sub    $0xc,%esp
 8049042:	68 d5 a0 04 08       	push   $0x804a0d5
 8049047:	e8 14 f7 ff ff       	call   8048760 <puts@plt>
 804904c:	c7 04 24 08 00 00 00 	movl   $0x8,(%esp)
 8049053:	e8 28 f7 ff ff       	call   8048780 <exit@plt>
 8049058:	83 ec 0c             	sub    $0xc,%esp
 804905b:	68 f3 a0 04 08       	push   $0x804a0f3
 8049060:	e8 eb f6 ff ff       	call   8048750 <getenv@plt>
 8049065:	83 c4 10             	add    $0x10,%esp
 8049068:	85 c0                	test   %eax,%eax
 804906a:	74 0a                	je     8049076 <read_line+0x50>
 804906c:	83 ec 0c             	sub    $0xc,%esp
 804906f:	6a 00                	push   $0x0
 8049071:	e8 0a f7 ff ff       	call   8048780 <exit@plt>
 8049076:	a1 c4 b4 04 08       	mov    0x804b4c4,%eax
 804907b:	a3 ec b4 04 08       	mov    %eax,0x804b4ec
 8049080:	e8 fc fe ff ff       	call   8048f81 <skip>
 8049085:	85 c0                	test   %eax,%eax
 8049087:	75 19                	jne    80490a2 <read_line+0x7c>
 8049089:	83 ec 0c             	sub    $0xc,%esp
 804908c:	68 d5 a0 04 08       	push   $0x804a0d5
 8049091:	e8 ca f6 ff ff       	call   8048760 <puts@plt>
 8049096:	c7 04 24 00 00 00 00 	movl   $0x0,(%esp)
 804909d:	e8 de f6 ff ff       	call   8048780 <exit@plt>
 80490a2:	8b 1d e8 b4 04 08    	mov    0x804b4e8,%ebx
 80490a8:	8d 34 9b             	lea    (%ebx,%ebx,4),%esi
 80490ab:	c1 e6 04             	shl    $0x4,%esi
 80490ae:	81 c6 00 b5 04 08    	add    $0x804b500,%esi
 80490b4:	89 f7                	mov    %esi,%edi
 80490b6:	b8 00 00 00 00       	mov    $0x0,%eax
 80490bb:	b9 ff ff ff ff       	mov    $0xffffffff,%ecx
 80490c0:	f2 ae                	repnz scas %es:(%edi),%al
 80490c2:	f7 d1                	not    %ecx
 80490c4:	83 e9 01             	sub    $0x1,%ecx
 80490c7:	83 f9 4e             	cmp    $0x4e,%ecx
 80490ca:	7e 36                	jle    8049102 <read_line+0xdc>
 80490cc:	83 ec 0c             	sub    $0xc,%esp
 80490cf:	68 fe a0 04 08       	push   $0x804a0fe
 80490d4:	e8 87 f6 ff ff       	call   8048760 <puts@plt>
 80490d9:	a1 e8 b4 04 08       	mov    0x804b4e8,%eax
 80490de:	8d 50 01             	lea    0x1(%eax),%edx
 80490e1:	89 15 e8 b4 04 08    	mov    %edx,0x804b4e8
 80490e7:	6b c0 50             	imul   $0x50,%eax,%eax
 80490ea:	05 00 b5 04 08       	add    $0x804b500,%eax
 80490ef:	be 19 a1 04 08       	mov    $0x804a119,%esi
 80490f4:	b9 04 00 00 00       	mov    $0x4,%ecx
 80490f9:	89 c7                	mov    %eax,%edi
 80490fb:	f3 a5                	rep movsl %ds:(%esi),%es:(%edi)
 80490fd:	e8 c4 fe ff ff       	call   8048fc6 <explode_bomb>
 8049102:	8d 04 9b             	lea    (%ebx,%ebx,4),%eax
 8049105:	c1 e0 04             	shl    $0x4,%eax
 8049108:	c6 84 01 ff b4 04 08 	movb   $0x0,0x804b4ff(%ecx,%eax,1)
 804910f:	00 
 8049110:	83 c3 01             	add    $0x1,%ebx
 8049113:	89 1d e8 b4 04 08    	mov    %ebx,0x804b4e8
 8049119:	89 f0                	mov    %esi,%eax
 804911b:	5b                   	pop    %ebx
 804911c:	5e                   	pop    %esi
 804911d:	5f                   	pop    %edi
 804911e:	c3                   	ret    

0804911f <phase_defused>:
 804911f:	83 3d e8 b4 04 08 06 	cmpl   $0x6,0x804b4e8
 8049126:	75 73                	jne    804919b <phase_defused+0x7c>
 8049128:	83 ec 78             	sub    $0x78,%esp
 804912b:	8d 44 24 1c          	lea    0x1c(%esp),%eax
 804912f:	50                   	push   %eax
 8049130:	8d 44 24 18          	lea    0x18(%esp),%eax
 8049134:	50                   	push   %eax
 8049135:	8d 44 24 20          	lea    0x20(%esp),%eax
 8049139:	50                   	push   %eax
 804913a:	68 29 a1 04 08       	push   $0x804a129
 804913f:	68 f0 b5 04 08       	push   $0x804b5f0
 8049144:	e8 77 f6 ff ff       	call   80487c0 <__isoc99_sscanf@plt>
 8049149:	83 c4 20             	add    $0x20,%esp
 804914c:	83 f8 03             	cmp    $0x3,%eax
 804914f:	75 3a                	jne    804918b <phase_defused+0x6c>
 8049151:	83 ec 08             	sub    $0x8,%esp
 8049154:	68 32 a1 04 08       	push   $0x804a132
 8049159:	8d 44 24 1c          	lea    0x1c(%esp),%eax
 804915d:	50                   	push   %eax
 804915e:	e8 6c fd ff ff       	call   8048ecf <strings_not_equal>
 8049163:	83 c4 10             	add    $0x10,%esp
 8049166:	85 c0                	test   %eax,%eax
 8049168:	75 21                	jne    804918b <phase_defused+0x6c>
 804916a:	83 ec 0c             	sub    $0xc,%esp
 804916d:	68 f8 9f 04 08       	push   $0x8049ff8
 8049172:	e8 e9 f5 ff ff       	call   8048760 <puts@plt>
 8049177:	c7 04 24 20 a0 04 08 	movl   $0x804a020,(%esp)
 804917e:	e8 dd f5 ff ff       	call   8048760 <puts@plt>
 8049183:	e8 58 fc ff ff       	call   8048de0 <secret_phase>
 8049188:	83 c4 10             	add    $0x10,%esp
 804918b:	83 ec 0c             	sub    $0xc,%esp
 804918e:	68 58 a0 04 08       	push   $0x804a058
 8049193:	e8 c8 f5 ff ff       	call   8048760 <puts@plt>
 8049198:	83 c4 7c             	add    $0x7c,%esp
 804919b:	f3 c3                	repz ret 

0804919d <sigalrm_handler>:
 804919d:	83 ec 10             	sub    $0x10,%esp
 80491a0:	6a 00                	push   $0x0
 80491a2:	68 88 a1 04 08       	push   $0x804a188
 80491a7:	ff 35 c0 b4 04 08    	pushl  0x804b4c0
 80491ad:	e8 ee f5 ff ff       	call   80487a0 <fprintf@plt>
 80491b2:	c7 04 24 01 00 00 00 	movl   $0x1,(%esp)
 80491b9:	e8 c2 f5 ff ff       	call   8048780 <exit@plt>

080491be <rio_readlineb>:
 80491be:	55                   	push   %ebp
 80491bf:	57                   	push   %edi
 80491c0:	56                   	push   %esi
 80491c1:	53                   	push   %ebx
 80491c2:	83 ec 3c             	sub    $0x3c,%esp
 80491c5:	89 c6                	mov    %eax,%esi
 80491c7:	89 54 24 10          	mov    %edx,0x10(%esp)
 80491cb:	89 4c 24 1c          	mov    %ecx,0x1c(%esp)
 80491cf:	83 f9 01             	cmp    $0x1,%ecx
 80491d2:	0f 86 b7 00 00 00    	jbe    804928f <rio_readlineb+0xd1>
 80491d8:	89 4c 24 18          	mov    %ecx,0x18(%esp)
 80491dc:	c7 44 24 0c 01 00 00 	movl   $0x1,0xc(%esp)
 80491e3:	00 
 80491e4:	8d 6e 0c             	lea    0xc(%esi),%ebp
 80491e7:	eb 34                	jmp    804921d <rio_readlineb+0x5f>
 80491e9:	83 ec 04             	sub    $0x4,%esp
 80491ec:	68 00 20 00 00       	push   $0x2000
 80491f1:	55                   	push   %ebp
 80491f2:	ff 36                	pushl  (%esi)
 80491f4:	e8 b7 f4 ff ff       	call   80486b0 <read@plt>
 80491f9:	89 46 04             	mov    %eax,0x4(%esi)
 80491fc:	83 c4 10             	add    $0x10,%esp
 80491ff:	85 c0                	test   %eax,%eax
 8049201:	79 0f                	jns    8049212 <rio_readlineb+0x54>
 8049203:	e8 d8 f5 ff ff       	call   80487e0 <__errno_location@plt>
 8049208:	83 38 04             	cmpl   $0x4,(%eax)
 804920b:	74 10                	je     804921d <rio_readlineb+0x5f>
 804920d:	e9 a3 00 00 00       	jmp    80492b5 <rio_readlineb+0xf7>
 8049212:	85 c0                	test   %eax,%eax
 8049214:	0f 84 a2 00 00 00    	je     80492bc <rio_readlineb+0xfe>
 804921a:	89 6e 08             	mov    %ebp,0x8(%esi)
 804921d:	8b 7e 04             	mov    0x4(%esi),%edi
 8049220:	85 ff                	test   %edi,%edi
 8049222:	7e c5                	jle    80491e9 <rio_readlineb+0x2b>
 8049224:	85 ff                	test   %edi,%edi
 8049226:	0f 95 c3             	setne  %bl
 8049229:	0f b6 db             	movzbl %bl,%ebx
 804922c:	8b 46 08             	mov    0x8(%esi),%eax
 804922f:	83 ec 04             	sub    $0x4,%esp
 8049232:	53                   	push   %ebx
 8049233:	89 44 24 1c          	mov    %eax,0x1c(%esp)
 8049237:	50                   	push   %eax
 8049238:	8d 4c 24 3b          	lea    0x3b(%esp),%ecx
 804923c:	51                   	push   %ecx
 804923d:	e8 9e f4 ff ff       	call   80486e0 <memcpy@plt>
 8049242:	8b 44 24 24          	mov    0x24(%esp),%eax
 8049246:	01 d8                	add    %ebx,%eax
 8049248:	89 46 08             	mov    %eax,0x8(%esi)
 804924b:	29 df                	sub    %ebx,%edi
 804924d:	89 7e 04             	mov    %edi,0x4(%esi)
 8049250:	83 c4 10             	add    $0x10,%esp
 8049253:	83 fb 01             	cmp    $0x1,%ebx
 8049256:	75 17                	jne    804926f <rio_readlineb+0xb1>
 8049258:	83 44 24 10 01       	addl   $0x1,0x10(%esp)
 804925d:	8b 54 24 10          	mov    0x10(%esp),%edx
 8049261:	0f b6 44 24 2f       	movzbl 0x2f(%esp),%eax
 8049266:	88 42 ff             	mov    %al,-0x1(%edx)
 8049269:	3c 0a                	cmp    $0xa,%al
 804926b:	75 11                	jne    804927e <rio_readlineb+0xc0>
 804926d:	eb 32                	jmp    80492a1 <rio_readlineb+0xe3>
 804926f:	8b 44 24 0c          	mov    0xc(%esp),%eax
 8049273:	85 db                	test   %ebx,%ebx
 8049275:	75 37                	jne    80492ae <rio_readlineb+0xf0>
 8049277:	83 f8 01             	cmp    $0x1,%eax
 804927a:	75 25                	jne    80492a1 <rio_readlineb+0xe3>
 804927c:	eb 46                	jmp    80492c4 <rio_readlineb+0x106>
 804927e:	83 44 24 0c 01       	addl   $0x1,0xc(%esp)
 8049283:	8b 44 24 0c          	mov    0xc(%esp),%eax
 8049287:	3b 44 24 18          	cmp    0x18(%esp),%eax
 804928b:	74 0c                	je     8049299 <rio_readlineb+0xdb>
 804928d:	eb 8e                	jmp    804921d <rio_readlineb+0x5f>
 804928f:	c7 44 24 0c 01 00 00 	movl   $0x1,0xc(%esp)
 8049296:	00 
 8049297:	eb 08                	jmp    80492a1 <rio_readlineb+0xe3>
 8049299:	8b 44 24 1c          	mov    0x1c(%esp),%eax
 804929d:	89 44 24 0c          	mov    %eax,0xc(%esp)
 80492a1:	8b 44 24 10          	mov    0x10(%esp),%eax
 80492a5:	c6 00 00             	movb   $0x0,(%eax)
 80492a8:	8b 5c 24 0c          	mov    0xc(%esp),%ebx
 80492ac:	eb 16                	jmp    80492c4 <rio_readlineb+0x106>
 80492ae:	bb ff ff ff ff       	mov    $0xffffffff,%ebx
 80492b3:	eb 0f                	jmp    80492c4 <rio_readlineb+0x106>
 80492b5:	bb ff ff ff ff       	mov    $0xffffffff,%ebx
 80492ba:	eb 02                	jmp    80492be <rio_readlineb+0x100>
 80492bc:	89 c3                	mov    %eax,%ebx
 80492be:	8b 44 24 0c          	mov    0xc(%esp),%eax
 80492c2:	eb af                	jmp    8049273 <rio_readlineb+0xb5>
 80492c4:	89 d8                	mov    %ebx,%eax
 80492c6:	83 c4 3c             	add    $0x3c,%esp
 80492c9:	5b                   	pop    %ebx
 80492ca:	5e                   	pop    %esi
 80492cb:	5f                   	pop    %edi
 80492cc:	5d                   	pop    %ebp
 80492cd:	c3                   	ret    

080492ce <submitr>:
 80492ce:	55                   	push   %ebp
 80492cf:	57                   	push   %edi
 80492d0:	56                   	push   %esi
 80492d1:	53                   	push   %ebx
 80492d2:	81 ec 50 a0 00 00    	sub    $0xa050,%esp
 80492d8:	8b 9c 24 78 a0 00 00 	mov    0xa078(%esp),%ebx
 80492df:	c7 84 24 24 20 00 00 	movl   $0x0,0x2024(%esp)
 80492e6:	00 00 00 00 
 80492ea:	6a 00                	push   $0x0
 80492ec:	6a 01                	push   $0x1
 80492ee:	6a 02                	push   $0x2
 80492f0:	e8 0b f5 ff ff       	call   8048800 <socket@plt>
 80492f5:	89 c5                	mov    %eax,%ebp
 80492f7:	83 c4 10             	add    $0x10,%esp
 80492fa:	85 c0                	test   %eax,%eax
 80492fc:	79 55                	jns    8049353 <submitr+0x85>
 80492fe:	8b 84 24 78 a0 00 00 	mov    0xa078(%esp),%eax
 8049305:	c7 00 45 72 72 6f    	movl   $0x6f727245,(%eax)
 804930b:	c7 40 04 72 3a 20 43 	movl   $0x43203a72,0x4(%eax)
 8049312:	c7 40 08 6c 69 65 6e 	movl   $0x6e65696c,0x8(%eax)
 8049319:	c7 40 0c 74 20 75 6e 	movl   $0x6e752074,0xc(%eax)
 8049320:	c7 40 10 61 62 6c 65 	movl   $0x656c6261,0x10(%eax)
 8049327:	c7 40 14 20 74 6f 20 	movl   $0x206f7420,0x14(%eax)
 804932e:	c7 40 18 63 72 65 61 	movl   $0x61657263,0x18(%eax)
 8049335:	c7 40 1c 74 65 20 73 	movl   $0x73206574,0x1c(%eax)
 804933c:	c7 40 20 6f 63 6b 65 	movl   $0x656b636f,0x20(%eax)
 8049343:	66 c7 40 24 74 00    	movw   $0x74,0x24(%eax)
 8049349:	b8 ff ff ff ff       	mov    $0xffffffff,%eax
 804934e:	e9 21 07 00 00       	jmp    8049a74 <submitr+0x7a6>
 8049353:	83 ec 0c             	sub    $0xc,%esp
 8049356:	ff b4 24 6c a0 00 00 	pushl  0xa06c(%esp)
 804935d:	e8 ae f4 ff ff       	call   8048810 <gethostbyname@plt>
 8049362:	83 c4 10             	add    $0x10,%esp
 8049365:	85 c0                	test   %eax,%eax
 8049367:	75 73                	jne    80493dc <submitr+0x10e>
 8049369:	8b 84 24 78 a0 00 00 	mov    0xa078(%esp),%eax
 8049370:	c7 00 45 72 72 6f    	movl   $0x6f727245,(%eax)
 8049376:	c7 40 04 72 3a 20 44 	movl   $0x44203a72,0x4(%eax)
 804937d:	c7 40 08 4e 53 20 69 	movl   $0x6920534e,0x8(%eax)
 8049384:	c7 40 0c 73 20 75 6e 	movl   $0x6e752073,0xc(%eax)
 804938b:	c7 40 10 61 62 6c 65 	movl   $0x656c6261,0x10(%eax)
 8049392:	c7 40 14 20 74 6f 20 	movl   $0x206f7420,0x14(%eax)
 8049399:	c7 40 18 72 65 73 6f 	movl   $0x6f736572,0x18(%eax)
 80493a0:	c7 40 1c 6c 76 65 20 	movl   $0x2065766c,0x1c(%eax)
 80493a7:	c7 40 20 73 65 72 76 	movl   $0x76726573,0x20(%eax)
 80493ae:	c7 40 24 65 72 20 61 	movl   $0x61207265,0x24(%eax)
 80493b5:	c7 40 28 64 64 72 65 	movl   $0x65726464,0x28(%eax)
 80493bc:	66 c7 40 2c 73 73    	movw   $0x7373,0x2c(%eax)
 80493c2:	c6 40 2e 00          	movb   $0x0,0x2e(%eax)
 80493c6:	83 ec 0c             	sub    $0xc,%esp
 80493c9:	55                   	push   %ebp
 80493ca:	e8 71 f4 ff ff       	call   8048840 <close@plt>
 80493cf:	83 c4 10             	add    $0x10,%esp
 80493d2:	b8 ff ff ff ff       	mov    $0xffffffff,%eax
 80493d7:	e9 98 06 00 00       	jmp    8049a74 <submitr+0x7a6>
 80493dc:	8d b4 24 30 a0 00 00 	lea    0xa030(%esp),%esi
 80493e3:	c7 84 24 30 a0 00 00 	movl   $0x0,0xa030(%esp)
 80493ea:	00 00 00 00 
 80493ee:	c7 84 24 34 a0 00 00 	movl   $0x0,0xa034(%esp)
 80493f5:	00 00 00 00 
 80493f9:	c7 84 24 38 a0 00 00 	movl   $0x0,0xa038(%esp)
 8049400:	00 00 00 00 
 8049404:	c7 84 24 3c a0 00 00 	movl   $0x0,0xa03c(%esp)
 804940b:	00 00 00 00 
 804940f:	66 c7 84 24 30 a0 00 	movw   $0x2,0xa030(%esp)
 8049416:	00 02 00 
 8049419:	83 ec 04             	sub    $0x4,%esp
 804941c:	ff 70 0c             	pushl  0xc(%eax)
 804941f:	8d 94 24 3c a0 00 00 	lea    0xa03c(%esp),%edx
 8049426:	52                   	push   %edx
 8049427:	8b 40 10             	mov    0x10(%eax),%eax
 804942a:	ff 30                	pushl  (%eax)
 804942c:	e8 ff f2 ff ff       	call   8048730 <bcopy@plt>
 8049431:	0f b7 84 24 74 a0 00 	movzwl 0xa074(%esp),%eax
 8049438:	00 
 8049439:	66 c1 c8 08          	ror    $0x8,%ax
 804943d:	66 89 84 24 42 a0 00 	mov    %ax,0xa042(%esp)
 8049444:	00 
 8049445:	83 c4 0c             	add    $0xc,%esp
 8049448:	6a 10                	push   $0x10
 804944a:	56                   	push   %esi
 804944b:	55                   	push   %ebp
 804944c:	e8 df f3 ff ff       	call   8048830 <connect@plt>
 8049451:	83 c4 10             	add    $0x10,%esp
 8049454:	85 c0                	test   %eax,%eax
 8049456:	79 65                	jns    80494bd <submitr+0x1ef>
 8049458:	8b 84 24 78 a0 00 00 	mov    0xa078(%esp),%eax
 804945f:	c7 00 45 72 72 6f    	movl   $0x6f727245,(%eax)
 8049465:	c7 40 04 72 3a 20 55 	movl   $0x55203a72,0x4(%eax)
 804946c:	c7 40 08 6e 61 62 6c 	movl   $0x6c62616e,0x8(%eax)
 8049473:	c7 40 0c 65 20 74 6f 	movl   $0x6f742065,0xc(%eax)
 804947a:	c7 40 10 20 63 6f 6e 	movl   $0x6e6f6320,0x10(%eax)
 8049481:	c7 40 14 6e 65 63 74 	movl   $0x7463656e,0x14(%eax)
 8049488:	c7 40 18 20 74 6f 20 	movl   $0x206f7420,0x18(%eax)
 804948f:	c7 40 1c 74 68 65 20 	movl   $0x20656874,0x1c(%eax)
 8049496:	c7 40 20 73 65 72 76 	movl   $0x76726573,0x20(%eax)
 804949d:	66 c7 40 24 65 72    	movw   $0x7265,0x24(%eax)
 80494a3:	c6 40 26 00          	movb   $0x0,0x26(%eax)
 80494a7:	83 ec 0c             	sub    $0xc,%esp
 80494aa:	55                   	push   %ebp
 80494ab:	e8 90 f3 ff ff       	call   8048840 <close@plt>
 80494b0:	83 c4 10             	add    $0x10,%esp
 80494b3:	b8 ff ff ff ff       	mov    $0xffffffff,%eax
 80494b8:	e9 b7 05 00 00       	jmp    8049a74 <submitr+0x7a6>
 80494bd:	ba ff ff ff ff       	mov    $0xffffffff,%edx
 80494c2:	89 df                	mov    %ebx,%edi
 80494c4:	b8 00 00 00 00       	mov    $0x0,%eax
 80494c9:	89 d1                	mov    %edx,%ecx
 80494cb:	f2 ae                	repnz scas %es:(%edi),%al
 80494cd:	89 ce                	mov    %ecx,%esi
 80494cf:	f7 d6                	not    %esi
 80494d1:	8b bc 24 68 a0 00 00 	mov    0xa068(%esp),%edi
 80494d8:	89 d1                	mov    %edx,%ecx
 80494da:	f2 ae                	repnz scas %es:(%edi),%al
 80494dc:	89 4c 24 08          	mov    %ecx,0x8(%esp)
 80494e0:	8b bc 24 6c a0 00 00 	mov    0xa06c(%esp),%edi
 80494e7:	89 d1                	mov    %edx,%ecx
 80494e9:	f2 ae                	repnz scas %es:(%edi),%al
 80494eb:	89 cf                	mov    %ecx,%edi
 80494ed:	f7 d7                	not    %edi
 80494ef:	89 7c 24 0c          	mov    %edi,0xc(%esp)
 80494f3:	8b bc 24 70 a0 00 00 	mov    0xa070(%esp),%edi
 80494fa:	89 d1                	mov    %edx,%ecx
 80494fc:	f2 ae                	repnz scas %es:(%edi),%al
 80494fe:	8b 54 24 0c          	mov    0xc(%esp),%edx
 8049502:	2b 54 24 08          	sub    0x8(%esp),%edx
 8049506:	29 ca                	sub    %ecx,%edx
 8049508:	8d 44 76 fd          	lea    -0x3(%esi,%esi,2),%eax
 804950c:	8d 44 02 7b          	lea    0x7b(%edx,%eax,1),%eax
 8049510:	3d 00 20 00 00       	cmp    $0x2000,%eax
 8049515:	76 7e                	jbe    8049595 <submitr+0x2c7>
 8049517:	8b 84 24 78 a0 00 00 	mov    0xa078(%esp),%eax
 804951e:	c7 00 45 72 72 6f    	movl   $0x6f727245,(%eax)
 8049524:	c7 40 04 72 3a 20 52 	movl   $0x52203a72,0x4(%eax)
 804952b:	c7 40 08 65 73 75 6c 	movl   $0x6c757365,0x8(%eax)
 8049532:	c7 40 0c 74 20 73 74 	movl   $0x74732074,0xc(%eax)
 8049539:	c7 40 10 72 69 6e 67 	movl   $0x676e6972,0x10(%eax)
 8049540:	c7 40 14 20 74 6f 6f 	movl   $0x6f6f7420,0x14(%eax)
 8049547:	c7 40 18 20 6c 61 72 	movl   $0x72616c20,0x18(%eax)
 804954e:	c7 40 1c 67 65 2e 20 	movl   $0x202e6567,0x1c(%eax)
 8049555:	c7 40 20 49 6e 63 72 	movl   $0x72636e49,0x20(%eax)
 804955c:	c7 40 24 65 61 73 65 	movl   $0x65736165,0x24(%eax)
 8049563:	c7 40 28 20 53 55 42 	movl   $0x42555320,0x28(%eax)
 804956a:	c7 40 2c 4d 49 54 52 	movl   $0x5254494d,0x2c(%eax)
 8049571:	c7 40 30 5f 4d 41 58 	movl   $0x58414d5f,0x30(%eax)
 8049578:	c7 40 34 42 55 46 00 	movl   $0x465542,0x34(%eax)
 804957f:	83 ec 0c             	sub    $0xc,%esp
 8049582:	55                   	push   %ebp
 8049583:	e8 b8 f2 ff ff       	call   8048840 <close@plt>
 8049588:	83 c4 10             	add    $0x10,%esp
 804958b:	b8 ff ff ff ff       	mov    $0xffffffff,%eax
 8049590:	e9 df 04 00 00       	jmp    8049a74 <submitr+0x7a6>
 8049595:	8d 94 24 24 40 00 00 	lea    0x4024(%esp),%edx
 804959c:	b9 00 08 00 00       	mov    $0x800,%ecx
 80495a1:	b8 00 00 00 00       	mov    $0x0,%eax
 80495a6:	89 d7                	mov    %edx,%edi
 80495a8:	f3 ab                	rep stos %eax,%es:(%edi)
 80495aa:	89 df                	mov    %ebx,%edi
 80495ac:	b9 ff ff ff ff       	mov    $0xffffffff,%ecx
 80495b1:	f2 ae                	repnz scas %es:(%edi),%al
 80495b3:	f7 d1                	not    %ecx
 80495b5:	89 ce                	mov    %ecx,%esi
 80495b7:	83 ee 01             	sub    $0x1,%esi
 80495ba:	0f 84 58 04 00 00    	je     8049a18 <submitr+0x74a>
 80495c0:	89 d7                	mov    %edx,%edi
 80495c2:	0f b6 03             	movzbl (%ebx),%eax
 80495c5:	3c 2a                	cmp    $0x2a,%al
 80495c7:	0f 94 c1             	sete   %cl
 80495ca:	8d 50 d3             	lea    -0x2d(%eax),%edx
 80495cd:	80 fa 01             	cmp    $0x1,%dl
 80495d0:	0f 96 c2             	setbe  %dl
 80495d3:	08 d1                	or     %dl,%cl
 80495d5:	75 19                	jne    80495f0 <submitr+0x322>
 80495d7:	3c 5f                	cmp    $0x5f,%al
 80495d9:	74 15                	je     80495f0 <submitr+0x322>
 80495db:	8d 50 d0             	lea    -0x30(%eax),%edx
 80495de:	80 fa 09             	cmp    $0x9,%dl
 80495e1:	76 0d                	jbe    80495f0 <submitr+0x322>
 80495e3:	89 c2                	mov    %eax,%edx
 80495e5:	83 e2 df             	and    $0xffffffdf,%edx
 80495e8:	83 ea 41             	sub    $0x41,%edx
 80495eb:	80 fa 19             	cmp    $0x19,%dl
 80495ee:	77 07                	ja     80495f7 <submitr+0x329>
 80495f0:	88 07                	mov    %al,(%edi)
 80495f2:	8d 7f 01             	lea    0x1(%edi),%edi
 80495f5:	eb 4f                	jmp    8049646 <submitr+0x378>
 80495f7:	3c 20                	cmp    $0x20,%al
 80495f9:	75 08                	jne    8049603 <submitr+0x335>
 80495fb:	c6 07 2b             	movb   $0x2b,(%edi)
 80495fe:	8d 7f 01             	lea    0x1(%edi),%edi
 8049601:	eb 43                	jmp    8049646 <submitr+0x378>
 8049603:	8d 50 e0             	lea    -0x20(%eax),%edx
 8049606:	80 fa 5f             	cmp    $0x5f,%dl
 8049609:	76 08                	jbe    8049613 <submitr+0x345>
 804960b:	3c 09                	cmp    $0x9,%al
 804960d:	0f 85 b5 03 00 00    	jne    80499c8 <submitr+0x6fa>
 8049613:	83 ec 04             	sub    $0x4,%esp
 8049616:	0f b6 c0             	movzbl %al,%eax
 8049619:	50                   	push   %eax
 804961a:	68 94 a2 04 08       	push   $0x804a294
 804961f:	8d 44 24 24          	lea    0x24(%esp),%eax
 8049623:	50                   	push   %eax
 8049624:	e8 c7 f1 ff ff       	call   80487f0 <sprintf@plt>
 8049629:	0f b6 44 24 28       	movzbl 0x28(%esp),%eax
 804962e:	88 07                	mov    %al,(%edi)
 8049630:	0f b6 44 24 29       	movzbl 0x29(%esp),%eax
 8049635:	88 47 01             	mov    %al,0x1(%edi)
 8049638:	0f b6 44 24 2a       	movzbl 0x2a(%esp),%eax
 804963d:	88 47 02             	mov    %al,0x2(%edi)
 8049640:	83 c4 10             	add    $0x10,%esp
 8049643:	8d 7f 03             	lea    0x3(%edi),%edi
 8049646:	83 c3 01             	add    $0x1,%ebx
 8049649:	83 ee 01             	sub    $0x1,%esi
 804964c:	0f 85 70 ff ff ff    	jne    80495c2 <submitr+0x2f4>
 8049652:	e9 c1 03 00 00       	jmp    8049a18 <submitr+0x74a>
 8049657:	83 ec 04             	sub    $0x4,%esp
 804965a:	53                   	push   %ebx
 804965b:	56                   	push   %esi
 804965c:	55                   	push   %ebp
 804965d:	e8 4e f1 ff ff       	call   80487b0 <write@plt>
 8049662:	83 c4 10             	add    $0x10,%esp
 8049665:	85 c0                	test   %eax,%eax
 8049667:	7f 0f                	jg     8049678 <submitr+0x3aa>
 8049669:	e8 72 f1 ff ff       	call   80487e0 <__errno_location@plt>
 804966e:	83 38 04             	cmpl   $0x4,(%eax)
 8049671:	75 0f                	jne    8049682 <submitr+0x3b4>
 8049673:	b8 00 00 00 00       	mov    $0x0,%eax
 8049678:	01 c6                	add    %eax,%esi
 804967a:	29 c3                	sub    %eax,%ebx
 804967c:	75 d9                	jne    8049657 <submitr+0x389>
 804967e:	85 ff                	test   %edi,%edi
 8049680:	79 69                	jns    80496eb <submitr+0x41d>
 8049682:	8b 84 24 78 a0 00 00 	mov    0xa078(%esp),%eax
 8049689:	c7 00 45 72 72 6f    	movl   $0x6f727245,(%eax)
 804968f:	c7 40 04 72 3a 20 43 	movl   $0x43203a72,0x4(%eax)
 8049696:	c7 40 08 6c 69 65 6e 	movl   $0x6e65696c,0x8(%eax)
 804969d:	c7 40 0c 74 20 75 6e 	movl   $0x6e752074,0xc(%eax)
 80496a4:	c7 40 10 61 62 6c 65 	movl   $0x656c6261,0x10(%eax)
 80496ab:	c7 40 14 20 74 6f 20 	movl   $0x206f7420,0x14(%eax)
 80496b2:	c7 40 18 77 72 69 74 	movl   $0x74697277,0x18(%eax)
 80496b9:	c7 40 1c 65 20 74 6f 	movl   $0x6f742065,0x1c(%eax)
 80496c0:	c7 40 20 20 74 68 65 	movl   $0x65687420,0x20(%eax)
 80496c7:	c7 40 24 20 73 65 72 	movl   $0x72657320,0x24(%eax)
 80496ce:	c7 40 28 76 65 72 00 	movl   $0x726576,0x28(%eax)
 80496d5:	83 ec 0c             	sub    $0xc,%esp
 80496d8:	55                   	push   %ebp
 80496d9:	e8 62 f1 ff ff       	call   8048840 <close@plt>
 80496de:	83 c4 10             	add    $0x10,%esp
 80496e1:	b8 ff ff ff ff       	mov    $0xffffffff,%eax
 80496e6:	e9 89 03 00 00       	jmp    8049a74 <submitr+0x7a6>
 80496eb:	89 ac 24 24 80 00 00 	mov    %ebp,0x8024(%esp)
 80496f2:	c7 84 24 28 80 00 00 	movl   $0x0,0x8028(%esp)
 80496f9:	00 00 00 00 
 80496fd:	8d 84 24 30 80 00 00 	lea    0x8030(%esp),%eax
 8049704:	89 84 24 2c 80 00 00 	mov    %eax,0x802c(%esp)
 804970b:	b9 00 20 00 00       	mov    $0x2000,%ecx
 8049710:	8d 94 24 24 60 00 00 	lea    0x6024(%esp),%edx
 8049717:	8d 84 24 24 80 00 00 	lea    0x8024(%esp),%eax
 804971e:	e8 9b fa ff ff       	call   80491be <rio_readlineb>
 8049723:	85 c0                	test   %eax,%eax
 8049725:	7f 7d                	jg     80497a4 <submitr+0x4d6>
 8049727:	8b 84 24 78 a0 00 00 	mov    0xa078(%esp),%eax
 804972e:	c7 00 45 72 72 6f    	movl   $0x6f727245,(%eax)
 8049734:	c7 40 04 72 3a 20 43 	movl   $0x43203a72,0x4(%eax)
 804973b:	c7 40 08 6c 69 65 6e 	movl   $0x6e65696c,0x8(%eax)
 8049742:	c7 40 0c 74 20 75 6e 	movl   $0x6e752074,0xc(%eax)
 8049749:	c7 40 10 61 62 6c 65 	movl   $0x656c6261,0x10(%eax)
 8049750:	c7 40 14 20 74 6f 20 	movl   $0x206f7420,0x14(%eax)
 8049757:	c7 40 18 72 65 61 64 	movl   $0x64616572,0x18(%eax)
 804975e:	c7 40 1c 20 66 69 72 	movl   $0x72696620,0x1c(%eax)
 8049765:	c7 40 20 73 74 20 68 	movl   $0x68207473,0x20(%eax)
 804976c:	c7 40 24 65 61 64 65 	movl   $0x65646165,0x24(%eax)
 8049773:	c7 40 28 72 20 66 72 	movl   $0x72662072,0x28(%eax)
 804977a:	c7 40 2c 6f 6d 20 73 	movl   $0x73206d6f,0x2c(%eax)
 8049781:	c7 40 30 65 72 76 65 	movl   $0x65767265,0x30(%eax)
 8049788:	66 c7 40 34 72 00    	movw   $0x72,0x34(%eax)
 804978e:	83 ec 0c             	sub    $0xc,%esp
 8049791:	55                   	push   %ebp
 8049792:	e8 a9 f0 ff ff       	call   8048840 <close@plt>
 8049797:	83 c4 10             	add    $0x10,%esp
 804979a:	b8 ff ff ff ff       	mov    $0xffffffff,%eax
 804979f:	e9 d0 02 00 00       	jmp    8049a74 <submitr+0x7a6>
 80497a4:	83 ec 0c             	sub    $0xc,%esp
 80497a7:	8d 44 24 2c          	lea    0x2c(%esp),%eax
 80497ab:	50                   	push   %eax
 80497ac:	8d 84 24 30 20 00 00 	lea    0x2030(%esp),%eax
 80497b3:	50                   	push   %eax
 80497b4:	8d 84 24 38 20 00 00 	lea    0x2038(%esp),%eax
 80497bb:	50                   	push   %eax
 80497bc:	68 9b a2 04 08       	push   $0x804a29b
 80497c1:	8d 84 24 40 60 00 00 	lea    0x6040(%esp),%eax
 80497c8:	50                   	push   %eax
 80497c9:	e8 f2 ef ff ff       	call   80487c0 <__isoc99_sscanf@plt>
 80497ce:	8b 84 24 40 20 00 00 	mov    0x2040(%esp),%eax
 80497d5:	83 c4 20             	add    $0x20,%esp
 80497d8:	3d c8 00 00 00       	cmp    $0xc8,%eax
 80497dd:	0f 84 bc 00 00 00    	je     804989f <submitr+0x5d1>
 80497e3:	8d 54 24 20          	lea    0x20(%esp),%edx
 80497e7:	52                   	push   %edx
 80497e8:	50                   	push   %eax
 80497e9:	68 ac a1 04 08       	push   $0x804a1ac
 80497ee:	ff b4 24 84 a0 00 00 	pushl  0xa084(%esp)
 80497f5:	e8 f6 ef ff ff       	call   80487f0 <sprintf@plt>
 80497fa:	89 2c 24             	mov    %ebp,(%esp)
 80497fd:	e8 3e f0 ff ff       	call   8048840 <close@plt>
 8049802:	83 c4 10             	add    $0x10,%esp
 8049805:	b8 ff ff ff ff       	mov    $0xffffffff,%eax
 804980a:	e9 65 02 00 00       	jmp    8049a74 <submitr+0x7a6>
 804980f:	b9 00 20 00 00       	mov    $0x2000,%ecx
 8049814:	8d 94 24 24 60 00 00 	lea    0x6024(%esp),%edx
 804981b:	8d 84 24 24 80 00 00 	lea    0x8024(%esp),%eax
 8049822:	e8 97 f9 ff ff       	call   80491be <rio_readlineb>
 8049827:	85 c0                	test   %eax,%eax
 8049829:	7f 74                	jg     804989f <submitr+0x5d1>
 804982b:	8b 84 24 78 a0 00 00 	mov    0xa078(%esp),%eax
 8049832:	c7 00 45 72 72 6f    	movl   $0x6f727245,(%eax)
 8049838:	c7 40 04 72 3a 20 43 	movl   $0x43203a72,0x4(%eax)
 804983f:	c7 40 08 6c 69 65 6e 	movl   $0x6e65696c,0x8(%eax)
 8049846:	c7 40 0c 74 20 75 6e 	movl   $0x6e752074,0xc(%eax)
 804984d:	c7 40 10 61 62 6c 65 	movl   $0x656c6261,0x10(%eax)
 8049854:	c7 40 14 20 74 6f 20 	movl   $0x206f7420,0x14(%eax)
 804985b:	c7 40 18 72 65 61 64 	movl   $0x64616572,0x18(%eax)
 8049862:	c7 40 1c 20 68 65 61 	movl   $0x61656820,0x1c(%eax)
 8049869:	c7 40 20 64 65 72 73 	movl   $0x73726564,0x20(%eax)
 8049870:	c7 40 24 20 66 72 6f 	movl   $0x6f726620,0x24(%eax)
 8049877:	c7 40 28 6d 20 73 65 	movl   $0x6573206d,0x28(%eax)
 804987e:	c7 40 2c 72 76 65 72 	movl   $0x72657672,0x2c(%eax)
 8049885:	c6 40 30 00          	movb   $0x0,0x30(%eax)
 8049889:	83 ec 0c             	sub    $0xc,%esp
 804988c:	55                   	push   %ebp
 804988d:	e8 ae ef ff ff       	call   8048840 <close@plt>
 8049892:	83 c4 10             	add    $0x10,%esp
 8049895:	b8 ff ff ff ff       	mov    $0xffffffff,%eax
 804989a:	e9 d5 01 00 00       	jmp    8049a74 <submitr+0x7a6>
 804989f:	80 bc 24 24 60 00 00 	cmpb   $0xd,0x6024(%esp)
 80498a6:	0d 
 80498a7:	0f 85 62 ff ff ff    	jne    804980f <submitr+0x541>
 80498ad:	80 bc 24 25 60 00 00 	cmpb   $0xa,0x6025(%esp)
 80498b4:	0a 
 80498b5:	0f 85 54 ff ff ff    	jne    804980f <submitr+0x541>
 80498bb:	80 bc 24 26 60 00 00 	cmpb   $0x0,0x6026(%esp)
 80498c2:	00 
 80498c3:	0f 85 46 ff ff ff    	jne    804980f <submitr+0x541>
 80498c9:	b9 00 20 00 00       	mov    $0x2000,%ecx
 80498ce:	8d 94 24 24 60 00 00 	lea    0x6024(%esp),%edx
 80498d5:	8d 84 24 24 80 00 00 	lea    0x8024(%esp),%eax
 80498dc:	e8 dd f8 ff ff       	call   80491be <rio_readlineb>
 80498e1:	85 c0                	test   %eax,%eax
 80498e3:	7f 7e                	jg     8049963 <submitr+0x695>
 80498e5:	8b 84 24 78 a0 00 00 	mov    0xa078(%esp),%eax
 80498ec:	c7 00 45 72 72 6f    	movl   $0x6f727245,(%eax)
 80498f2:	c7 40 04 72 3a 20 43 	movl   $0x43203a72,0x4(%eax)
 80498f9:	c7 40 08 6c 69 65 6e 	movl   $0x6e65696c,0x8(%eax)
 8049900:	c7 40 0c 74 20 75 6e 	movl   $0x6e752074,0xc(%eax)
 8049907:	c7 40 10 61 62 6c 65 	movl   $0x656c6261,0x10(%eax)
 804990e:	c7 40 14 20 74 6f 20 	movl   $0x206f7420,0x14(%eax)
 8049915:	c7 40 18 72 65 61 64 	movl   $0x64616572,0x18(%eax)
 804991c:	c7 40 1c 20 73 74 61 	movl   $0x61747320,0x1c(%eax)
 8049923:	c7 40 20 74 75 73 20 	movl   $0x20737574,0x20(%eax)
 804992a:	c7 40 24 6d 65 73 73 	movl   $0x7373656d,0x24(%eax)
 8049931:	c7 40 28 61 67 65 20 	movl   $0x20656761,0x28(%eax)
 8049938:	c7 40 2c 66 72 6f 6d 	movl   $0x6d6f7266,0x2c(%eax)
 804993f:	c7 40 30 20 73 65 72 	movl   $0x72657320,0x30(%eax)
 8049946:	c7 40 34 76 65 72 00 	movl   $0x726576,0x34(%eax)
 804994d:	83 ec 0c             	sub    $0xc,%esp
 8049950:	55                   	push   %ebp
 8049951:	e8 ea ee ff ff       	call   8048840 <close@plt>
 8049956:	83 c4 10             	add    $0x10,%esp
 8049959:	b8 ff ff ff ff       	mov    $0xffffffff,%eax
 804995e:	e9 11 01 00 00       	jmp    8049a74 <submitr+0x7a6>
 8049963:	83 ec 08             	sub    $0x8,%esp
 8049966:	8d 84 24 2c 60 00 00 	lea    0x602c(%esp),%eax
 804996d:	50                   	push   %eax
 804996e:	ff b4 24 84 a0 00 00 	pushl  0xa084(%esp)
 8049975:	e8 c6 ed ff ff       	call   8048740 <strcpy@plt>
 804997a:	89 2c 24             	mov    %ebp,(%esp)
 804997d:	e8 be ee ff ff       	call   8048840 <close@plt>
 8049982:	8b 84 24 88 a0 00 00 	mov    0xa088(%esp),%eax
 8049989:	0f b6 10             	movzbl (%eax),%edx
 804998c:	b8 4f 00 00 00       	mov    $0x4f,%eax
 8049991:	83 c4 10             	add    $0x10,%esp
 8049994:	29 d0                	sub    %edx,%eax
 8049996:	75 21                	jne    80499b9 <submitr+0x6eb>
 8049998:	8b 84 24 78 a0 00 00 	mov    0xa078(%esp),%eax
 804999f:	0f b6 50 01          	movzbl 0x1(%eax),%edx
 80499a3:	b8 4b 00 00 00       	mov    $0x4b,%eax
 80499a8:	29 d0                	sub    %edx,%eax
 80499aa:	75 0d                	jne    80499b9 <submitr+0x6eb>
 80499ac:	8b 84 24 78 a0 00 00 	mov    0xa078(%esp),%eax
 80499b3:	0f b6 40 02          	movzbl 0x2(%eax),%eax
 80499b7:	f7 d8                	neg    %eax
 80499b9:	85 c0                	test   %eax,%eax
 80499bb:	0f 95 c0             	setne  %al
 80499be:	0f b6 c0             	movzbl %al,%eax
 80499c1:	f7 d8                	neg    %eax
 80499c3:	e9 ac 00 00 00       	jmp    8049a74 <submitr+0x7a6>
 80499c8:	a1 dc a1 04 08       	mov    0x804a1dc,%eax
 80499cd:	8b b4 24 78 a0 00 00 	mov    0xa078(%esp),%esi
 80499d4:	89 06                	mov    %eax,(%esi)
 80499d6:	a1 1b a2 04 08       	mov    0x804a21b,%eax
 80499db:	8b b4 24 78 a0 00 00 	mov    0xa078(%esp),%esi
 80499e2:	89 46 3f             	mov    %eax,0x3f(%esi)
 80499e5:	8b 84 24 78 a0 00 00 	mov    0xa078(%esp),%eax
 80499ec:	8d 78 04             	lea    0x4(%eax),%edi
 80499ef:	83 e7 fc             	and    $0xfffffffc,%edi
 80499f2:	29 f8                	sub    %edi,%eax
 80499f4:	be dc a1 04 08       	mov    $0x804a1dc,%esi
 80499f9:	29 c6                	sub    %eax,%esi
 80499fb:	83 c0 43             	add    $0x43,%eax
 80499fe:	c1 e8 02             	shr    $0x2,%eax
 8049a01:	89 c1                	mov    %eax,%ecx
 8049a03:	f3 a5                	rep movsl %ds:(%esi),%es:(%edi)
 8049a05:	83 ec 0c             	sub    $0xc,%esp
 8049a08:	55                   	push   %ebp
 8049a09:	e8 32 ee ff ff       	call   8048840 <close@plt>
 8049a0e:	83 c4 10             	add    $0x10,%esp
 8049a11:	b8 ff ff ff ff       	mov    $0xffffffff,%eax
 8049a16:	eb 5c                	jmp    8049a74 <submitr+0x7a6>
 8049a18:	83 ec 08             	sub    $0x8,%esp
 8049a1b:	8d 84 24 2c 40 00 00 	lea    0x402c(%esp),%eax
 8049a22:	50                   	push   %eax
 8049a23:	ff b4 24 7c a0 00 00 	pushl  0xa07c(%esp)
 8049a2a:	ff b4 24 7c a0 00 00 	pushl  0xa07c(%esp)
 8049a31:	ff b4 24 7c a0 00 00 	pushl  0xa07c(%esp)
 8049a38:	68 20 a2 04 08       	push   $0x804a220
 8049a3d:	8d bc 24 40 60 00 00 	lea    0x6040(%esp),%edi
 8049a44:	57                   	push   %edi
 8049a45:	e8 a6 ed ff ff       	call   80487f0 <sprintf@plt>
 8049a4a:	b8 00 00 00 00       	mov    $0x0,%eax
 8049a4f:	b9 ff ff ff ff       	mov    $0xffffffff,%ecx
 8049a54:	f2 ae                	repnz scas %es:(%edi),%al
 8049a56:	f7 d1                	not    %ecx
 8049a58:	8d 79 ff             	lea    -0x1(%ecx),%edi
 8049a5b:	83 c4 20             	add    $0x20,%esp
 8049a5e:	89 fb                	mov    %edi,%ebx
 8049a60:	8d b4 24 24 60 00 00 	lea    0x6024(%esp),%esi
 8049a67:	85 ff                	test   %edi,%edi
 8049a69:	0f 85 e8 fb ff ff    	jne    8049657 <submitr+0x389>
 8049a6f:	e9 77 fc ff ff       	jmp    80496eb <submitr+0x41d>
 8049a74:	81 c4 4c a0 00 00    	add    $0xa04c,%esp
 8049a7a:	5b                   	pop    %ebx
 8049a7b:	5e                   	pop    %esi
 8049a7c:	5f                   	pop    %edi
 8049a7d:	5d                   	pop    %ebp
 8049a7e:	c3                   	ret    

08049a7f <init_timeout>:
 8049a7f:	53                   	push   %ebx
 8049a80:	83 ec 08             	sub    $0x8,%esp
 8049a83:	8b 5c 24 10          	mov    0x10(%esp),%ebx
 8049a87:	85 db                	test   %ebx,%ebx
 8049a89:	74 23                	je     8049aae <init_timeout+0x2f>
 8049a8b:	83 ec 08             	sub    $0x8,%esp
 8049a8e:	68 9d 91 04 08       	push   $0x804919d
 8049a93:	6a 0e                	push   $0xe
 8049a95:	e8 66 ec ff ff       	call   8048700 <signal@plt>
 8049a9a:	89 d8                	mov    %ebx,%eax
 8049a9c:	c1 f8 1f             	sar    $0x1f,%eax
 8049a9f:	f7 d0                	not    %eax
 8049aa1:	21 d8                	and    %ebx,%eax
 8049aa3:	89 04 24             	mov    %eax,(%esp)
 8049aa6:	e8 75 ec ff ff       	call   8048720 <alarm@plt>
 8049aab:	83 c4 10             	add    $0x10,%esp
 8049aae:	83 c4 08             	add    $0x8,%esp
 8049ab1:	5b                   	pop    %ebx
 8049ab2:	c3                   	ret    

08049ab3 <init_driver>:
 8049ab3:	57                   	push   %edi
 8049ab4:	56                   	push   %esi
 8049ab5:	53                   	push   %ebx
 8049ab6:	83 ec 18             	sub    $0x18,%esp
 8049ab9:	8b 74 24 28          	mov    0x28(%esp),%esi
 8049abd:	6a 01                	push   $0x1
 8049abf:	6a 0d                	push   $0xd
 8049ac1:	e8 3a ec ff ff       	call   8048700 <signal@plt>
 8049ac6:	83 c4 08             	add    $0x8,%esp
 8049ac9:	6a 01                	push   $0x1
 8049acb:	6a 1d                	push   $0x1d
 8049acd:	e8 2e ec ff ff       	call   8048700 <signal@plt>
 8049ad2:	83 c4 08             	add    $0x8,%esp
 8049ad5:	6a 01                	push   $0x1
 8049ad7:	6a 1d                	push   $0x1d
 8049ad9:	e8 22 ec ff ff       	call   8048700 <signal@plt>
 8049ade:	83 c4 0c             	add    $0xc,%esp
 8049ae1:	6a 00                	push   $0x0
 8049ae3:	6a 01                	push   $0x1
 8049ae5:	6a 02                	push   $0x2
 8049ae7:	e8 14 ed ff ff       	call   8048800 <socket@plt>
 8049aec:	89 c3                	mov    %eax,%ebx
 8049aee:	83 c4 10             	add    $0x10,%esp
 8049af1:	85 c0                	test   %eax,%eax
 8049af3:	79 4e                	jns    8049b43 <init_driver+0x90>
 8049af5:	c7 06 45 72 72 6f    	movl   $0x6f727245,(%esi)
 8049afb:	c7 46 04 72 3a 20 43 	movl   $0x43203a72,0x4(%esi)
 8049b02:	c7 46 08 6c 69 65 6e 	movl   $0x6e65696c,0x8(%esi)
 8049b09:	c7 46 0c 74 20 75 6e 	movl   $0x6e752074,0xc(%esi)
 8049b10:	c7 46 10 61 62 6c 65 	movl   $0x656c6261,0x10(%esi)
 8049b17:	c7 46 14 20 74 6f 20 	movl   $0x206f7420,0x14(%esi)
 8049b1e:	c7 46 18 63 72 65 61 	movl   $0x61657263,0x18(%esi)
 8049b25:	c7 46 1c 74 65 20 73 	movl   $0x73206574,0x1c(%esi)
 8049b2c:	c7 46 20 6f 63 6b 65 	movl   $0x656b636f,0x20(%esi)
 8049b33:	66 c7 46 24 74 00    	movw   $0x74,0x24(%esi)
 8049b39:	b8 ff ff ff ff       	mov    $0xffffffff,%eax
 8049b3e:	e9 15 01 00 00       	jmp    8049c58 <init_driver+0x1a5>
 8049b43:	83 ec 0c             	sub    $0xc,%esp
 8049b46:	68 ac a2 04 08       	push   $0x804a2ac
 8049b4b:	e8 c0 ec ff ff       	call   8048810 <gethostbyname@plt>
 8049b50:	83 c4 10             	add    $0x10,%esp
 8049b53:	85 c0                	test   %eax,%eax
 8049b55:	75 6c                	jne    8049bc3 <init_driver+0x110>
 8049b57:	c7 06 45 72 72 6f    	movl   $0x6f727245,(%esi)
 8049b5d:	c7 46 04 72 3a 20 44 	movl   $0x44203a72,0x4(%esi)
 8049b64:	c7 46 08 4e 53 20 69 	movl   $0x6920534e,0x8(%esi)
 8049b6b:	c7 46 0c 73 20 75 6e 	movl   $0x6e752073,0xc(%esi)
 8049b72:	c7 46 10 61 62 6c 65 	movl   $0x656c6261,0x10(%esi)
 8049b79:	c7 46 14 20 74 6f 20 	movl   $0x206f7420,0x14(%esi)
 8049b80:	c7 46 18 72 65 73 6f 	movl   $0x6f736572,0x18(%esi)
 8049b87:	c7 46 1c 6c 76 65 20 	movl   $0x2065766c,0x1c(%esi)
 8049b8e:	c7 46 20 73 65 72 76 	movl   $0x76726573,0x20(%esi)
 8049b95:	c7 46 24 65 72 20 61 	movl   $0x61207265,0x24(%esi)
 8049b9c:	c7 46 28 64 64 72 65 	movl   $0x65726464,0x28(%esi)
 8049ba3:	66 c7 46 2c 73 73    	movw   $0x7373,0x2c(%esi)
 8049ba9:	c6 46 2e 00          	movb   $0x0,0x2e(%esi)
 8049bad:	83 ec 0c             	sub    $0xc,%esp
 8049bb0:	53                   	push   %ebx
 8049bb1:	e8 8a ec ff ff       	call   8048840 <close@plt>
 8049bb6:	83 c4 10             	add    $0x10,%esp
 8049bb9:	b8 ff ff ff ff       	mov    $0xffffffff,%eax
 8049bbe:	e9 95 00 00 00       	jmp    8049c58 <init_driver+0x1a5>
 8049bc3:	89 e7                	mov    %esp,%edi
 8049bc5:	c7 04 24 00 00 00 00 	movl   $0x0,(%esp)
 8049bcc:	c7 44 24 04 00 00 00 	movl   $0x0,0x4(%esp)
 8049bd3:	00 
 8049bd4:	c7 44 24 08 00 00 00 	movl   $0x0,0x8(%esp)
 8049bdb:	00 
 8049bdc:	c7 44 24 0c 00 00 00 	movl   $0x0,0xc(%esp)
 8049be3:	00 
 8049be4:	66 c7 04 24 02 00    	movw   $0x2,(%esp)
 8049bea:	83 ec 04             	sub    $0x4,%esp
 8049bed:	ff 70 0c             	pushl  0xc(%eax)
 8049bf0:	8d 54 24 0c          	lea    0xc(%esp),%edx
 8049bf4:	52                   	push   %edx
 8049bf5:	8b 40 10             	mov    0x10(%eax),%eax
 8049bf8:	ff 30                	pushl  (%eax)
 8049bfa:	e8 31 eb ff ff       	call   8048730 <bcopy@plt>
 8049bff:	66 c7 44 24 12 3b 6e 	movw   $0x6e3b,0x12(%esp)
 8049c06:	83 c4 0c             	add    $0xc,%esp
 8049c09:	6a 10                	push   $0x10
 8049c0b:	57                   	push   %edi
 8049c0c:	53                   	push   %ebx
 8049c0d:	e8 1e ec ff ff       	call   8048830 <connect@plt>
 8049c12:	83 c4 10             	add    $0x10,%esp
 8049c15:	85 c0                	test   %eax,%eax
 8049c17:	79 25                	jns    8049c3e <init_driver+0x18b>
 8049c19:	83 ec 04             	sub    $0x4,%esp
 8049c1c:	68 ac a2 04 08       	push   $0x804a2ac
 8049c21:	68 6c a2 04 08       	push   $0x804a26c
 8049c26:	56                   	push   %esi
 8049c27:	e8 c4 eb ff ff       	call   80487f0 <sprintf@plt>
 8049c2c:	89 1c 24             	mov    %ebx,(%esp)
 8049c2f:	e8 0c ec ff ff       	call   8048840 <close@plt>
 8049c34:	83 c4 10             	add    $0x10,%esp
 8049c37:	b8 ff ff ff ff       	mov    $0xffffffff,%eax
 8049c3c:	eb 1a                	jmp    8049c58 <init_driver+0x1a5>
 8049c3e:	83 ec 0c             	sub    $0xc,%esp
 8049c41:	53                   	push   %ebx
 8049c42:	e8 f9 eb ff ff       	call   8048840 <close@plt>
 8049c47:	66 c7 06 4f 4b       	movw   $0x4b4f,(%esi)
 8049c4c:	c6 46 02 00          	movb   $0x0,0x2(%esi)
 8049c50:	83 c4 10             	add    $0x10,%esp
 8049c53:	b8 00 00 00 00       	mov    $0x0,%eax
 8049c58:	83 c4 10             	add    $0x10,%esp
 8049c5b:	5b                   	pop    %ebx
 8049c5c:	5e                   	pop    %esi
 8049c5d:	5f                   	pop    %edi
 8049c5e:	c3                   	ret    

08049c5f <driver_post>:
 8049c5f:	53                   	push   %ebx
 8049c60:	83 ec 08             	sub    $0x8,%esp
 8049c63:	8b 44 24 10          	mov    0x10(%esp),%eax
 8049c67:	8b 5c 24 1c          	mov    0x1c(%esp),%ebx
 8049c6b:	83 7c 24 18 00       	cmpl   $0x0,0x18(%esp)
 8049c70:	74 24                	je     8049c96 <driver_post+0x37>
 8049c72:	83 ec 08             	sub    $0x8,%esp
 8049c75:	ff 74 24 1c          	pushl  0x1c(%esp)
 8049c79:	68 c4 a2 04 08       	push   $0x804a2c4
 8049c7e:	e8 3d ea ff ff       	call   80486c0 <printf@plt>
 8049c83:	66 c7 03 4f 4b       	movw   $0x4b4f,(%ebx)
 8049c88:	c6 43 02 00          	movb   $0x0,0x2(%ebx)
 8049c8c:	83 c4 10             	add    $0x10,%esp
 8049c8f:	b8 00 00 00 00       	mov    $0x0,%eax
 8049c94:	eb 3e                	jmp    8049cd4 <driver_post+0x75>
 8049c96:	85 c0                	test   %eax,%eax
 8049c98:	74 2c                	je     8049cc6 <driver_post+0x67>
 8049c9a:	80 38 00             	cmpb   $0x0,(%eax)
 8049c9d:	74 27                	je     8049cc6 <driver_post+0x67>
 8049c9f:	83 ec 04             	sub    $0x4,%esp
 8049ca2:	53                   	push   %ebx
 8049ca3:	ff 74 24 1c          	pushl  0x1c(%esp)
 8049ca7:	68 db a2 04 08       	push   $0x804a2db
 8049cac:	50                   	push   %eax
 8049cad:	68 e3 a2 04 08       	push   $0x804a2e3
 8049cb2:	68 6e 3b 00 00       	push   $0x3b6e
 8049cb7:	68 ac a2 04 08       	push   $0x804a2ac
 8049cbc:	e8 0d f6 ff ff       	call   80492ce <submitr>
 8049cc1:	83 c4 20             	add    $0x20,%esp
 8049cc4:	eb 0e                	jmp    8049cd4 <driver_post+0x75>
 8049cc6:	66 c7 03 4f 4b       	movw   $0x4b4f,(%ebx)
 8049ccb:	c6 43 02 00          	movb   $0x0,0x2(%ebx)
 8049ccf:	b8 00 00 00 00       	mov    $0x0,%eax
 8049cd4:	83 c4 08             	add    $0x8,%esp
 8049cd7:	5b                   	pop    %ebx
 8049cd8:	c3                   	ret    
 8049cd9:	66 90                	xchg   %ax,%ax
 8049cdb:	66 90                	xchg   %ax,%ax
 8049cdd:	66 90                	xchg   %ax,%ax
 8049cdf:	90                   	nop

08049ce0 <__libc_csu_init>:
 8049ce0:	55                   	push   %ebp
 8049ce1:	57                   	push   %edi
 8049ce2:	31 ff                	xor    %edi,%edi
 8049ce4:	56                   	push   %esi
 8049ce5:	53                   	push   %ebx
 8049ce6:	e8 a5 eb ff ff       	call   8048890 <__x86.get_pc_thunk.bx>
 8049ceb:	81 c3 0d 14 00 00    	add    $0x140d,%ebx
 8049cf1:	83 ec 1c             	sub    $0x1c,%esp
 8049cf4:	8b 6c 24 30          	mov    0x30(%esp),%ebp
 8049cf8:	8d b3 0c ff ff ff    	lea    -0xf4(%ebx),%esi
 8049cfe:	e8 79 e9 ff ff       	call   804867c <_init>
 8049d03:	8d 83 08 ff ff ff    	lea    -0xf8(%ebx),%eax
 8049d09:	29 c6                	sub    %eax,%esi
 8049d0b:	c1 fe 02             	sar    $0x2,%esi
 8049d0e:	85 f6                	test   %esi,%esi
 8049d10:	74 27                	je     8049d39 <__libc_csu_init+0x59>
 8049d12:	8d b6 00 00 00 00    	lea    0x0(%esi),%esi
 8049d18:	8b 44 24 38          	mov    0x38(%esp),%eax
 8049d1c:	89 2c 24             	mov    %ebp,(%esp)
 8049d1f:	89 44 24 08          	mov    %eax,0x8(%esp)
 8049d23:	8b 44 24 34          	mov    0x34(%esp),%eax
 8049d27:	89 44 24 04          	mov    %eax,0x4(%esp)
 8049d2b:	ff 94 bb 08 ff ff ff 	call   *-0xf8(%ebx,%edi,4)
 8049d32:	83 c7 01             	add    $0x1,%edi
 8049d35:	39 f7                	cmp    %esi,%edi
 8049d37:	75 df                	jne    8049d18 <__libc_csu_init+0x38>
 8049d39:	83 c4 1c             	add    $0x1c,%esp
 8049d3c:	5b                   	pop    %ebx
 8049d3d:	5e                   	pop    %esi
 8049d3e:	5f                   	pop    %edi
 8049d3f:	5d                   	pop    %ebp
 8049d40:	c3                   	ret    
 8049d41:	eb 0d                	jmp    8049d50 <__libc_csu_fini>
 8049d43:	90                   	nop
 8049d44:	90                   	nop
 8049d45:	90                   	nop
 8049d46:	90                   	nop
 8049d47:	90                   	nop
 8049d48:	90                   	nop
 8049d49:	90                   	nop
 8049d4a:	90                   	nop
 8049d4b:	90                   	nop
 8049d4c:	90                   	nop
 8049d4d:	90                   	nop
 8049d4e:	90                   	nop
 8049d4f:	90                   	nop

08049d50 <__libc_csu_fini>:
 8049d50:	f3 c3                	repz ret 

Disassembly of section .fini:

08049d54 <_fini>:
 8049d54:	53                   	push   %ebx
 8049d55:	83 ec 08             	sub    $0x8,%esp
 8049d58:	e8 33 eb ff ff       	call   8048890 <__x86.get_pc_thunk.bx>
 8049d5d:	81 c3 9b 13 00 00    	add    $0x139b,%ebx
 8049d63:	83 c4 08             	add    $0x8,%esp
 8049d66:	5b                   	pop    %ebx
 8049d67:	c3                   	ret    
